Component: ARM Compiler 5.05 (build 41) Tool: armlink [4d0eb9]

==============================================================================

Section Cross References

    dfu-cc.pb.o(.constdata) refers to dfu-cc.pb.o(.constdata) for dfu_hash_fields
    dfu-cc.pb.o(.constdata) refers to dfu-cc.pb.o(.constdata) for dfu_init_command_is_debug_default
    dfu-cc.pb.o(.constdata) refers to dfu-cc.pb.o(.constdata) for dfu_init_command_fields
    dfu-cc.pb.o(.constdata) refers to dfu-cc.pb.o(.constdata) for dfu_reset_command_fields
    dfu-cc.pb.o(.constdata) refers to dfu-cc.pb.o(.constdata) for dfu_command_fields
    dfu-cc.pb.o(.constdata) refers to dfu-cc.pb.o(.constdata) for dfu_command_fields
    dfu-cc.pb.o(.constdata) refers to dfu-cc.pb.o(.constdata) for dfu_signed_command_fields
    dfu_req_handling.o(i.dfu_data_write_handler) refers to dfu_req_handling.o(.data) for .data
    dfu_req_handling.o(i.dfu_decode_commmand) refers to pb_decode.o(i.pb_istream_from_buffer) for pb_istream_from_buffer
    dfu_req_handling.o(i.dfu_decode_commmand) refers to pb_decode.o(i.pb_decode) for pb_decode
    dfu_req_handling.o(i.dfu_decode_commmand) refers to nrf_dfu_settings.o(.bss) for s_dfu_settings
    dfu_req_handling.o(i.dfu_decode_commmand) refers to dfu_req_handling.o(.bss) for .bss
    dfu_req_handling.o(i.dfu_decode_commmand) refers to dfu_req_handling.o(i.pb_decoding_callback) for pb_decoding_callback
    dfu_req_handling.o(i.dfu_decode_commmand) refers to dfu_req_handling.o(.data) for .data
    dfu_req_handling.o(i.dfu_decode_commmand) refers to dfu-cc.pb.o(.constdata) for dfu_packet_fields
    dfu_req_handling.o(i.dfu_handle_prevalidate) refers to nrf_crypto.o(i.nrf_crypto_hash_compute) for nrf_crypto_hash_compute
    dfu_req_handling.o(i.dfu_handle_prevalidate) refers to memcpya.o(.text) for __aeabi_memcpy
    dfu_req_handling.o(i.dfu_handle_prevalidate) refers to nrf_crypto.o(i.nrf_crypto_verify) for nrf_crypto_verify
    dfu_req_handling.o(i.dfu_handle_prevalidate) refers to nrf_dfu_utils.o(i.nrf_dfu_find_cache) for nrf_dfu_find_cache
    dfu_req_handling.o(i.dfu_handle_prevalidate) refers to nrf_dfu_settings.o(.bss) for s_dfu_settings
    dfu_req_handling.o(i.dfu_handle_prevalidate) refers to dfu_req_handling.o(.bss) for .bss
    dfu_req_handling.o(i.dfu_handle_prevalidate) refers to dfu_req_handling.o(.data) for .data
    dfu_req_handling.o(i.dfu_handle_prevalidate) refers to dfu_req_handling.o(.constdata) for .constdata
    dfu_req_handling.o(i.nrf_delay_us) refers to system_nrf52.o(.data) for SystemCoreClock
    dfu_req_handling.o(i.nrf_dfu_command_req) refers to memseta.o(.text) for __aeabi_memclr4
    dfu_req_handling.o(i.nrf_dfu_command_req) refers to memcpya.o(.text) for __aeabi_memcpy
    dfu_req_handling.o(i.nrf_dfu_command_req) refers to crc32.o(i.crc32_compute) for crc32_compute
    dfu_req_handling.o(i.nrf_dfu_command_req) refers to dfu_req_handling.o(i.dfu_decode_commmand) for dfu_decode_commmand
    dfu_req_handling.o(i.nrf_dfu_command_req) refers to dfu_req_handling.o(i.dfu_handle_prevalidate) for dfu_handle_prevalidate
    dfu_req_handling.o(i.nrf_dfu_command_req) refers to nrf_dfu_settings.o(i.nrf_dfu_settings_write) for nrf_dfu_settings_write
    dfu_req_handling.o(i.nrf_dfu_command_req) refers to nrf_dfu_settings.o(.bss) for s_dfu_settings
    dfu_req_handling.o(i.nrf_dfu_command_req) refers to dfu_req_handling.o(.data) for .data
    dfu_req_handling.o(i.nrf_dfu_command_req) refers to dfu_req_handling.o(.bss) for .bss
    dfu_req_handling.o(i.nrf_dfu_data_req) refers to nrf_dfu_flash.o(i.nrf_dfu_flash_erase) for nrf_dfu_flash_erase
    dfu_req_handling.o(i.nrf_dfu_data_req) refers to crc32.o(i.crc32_compute) for crc32_compute
    dfu_req_handling.o(i.nrf_dfu_data_req) refers to memcpya.o(.text) for __aeabi_memcpy
    dfu_req_handling.o(i.nrf_dfu_data_req) refers to nrf_dfu_flash.o(i.nrf_dfu_flash_store) for nrf_dfu_flash_store
    dfu_req_handling.o(i.nrf_dfu_data_req) refers to nrf_dfu_settings.o(i.nrf_dfu_settings_write) for nrf_dfu_settings_write
    dfu_req_handling.o(i.nrf_dfu_data_req) refers to nrf_dfu.o(i.nrf_dfu_wait) for nrf_dfu_wait
    dfu_req_handling.o(i.nrf_dfu_data_req) refers to dfu_req_handling.o(i.nrf_dfu_postvalidate) for nrf_dfu_postvalidate
    dfu_req_handling.o(i.nrf_dfu_data_req) refers to dfu_req_handling.o(.data) for .data
    dfu_req_handling.o(i.nrf_dfu_data_req) refers to nrf_dfu_settings.o(.bss) for s_dfu_settings
    dfu_req_handling.o(i.nrf_dfu_data_req) refers to dfu_req_handling.o(i.dfu_data_write_handler) for dfu_data_write_handler
    dfu_req_handling.o(i.nrf_dfu_data_req) refers to dfu_req_handling.o(.bss) for .bss
    dfu_req_handling.o(i.nrf_dfu_postvalidate) refers to nrf_crypto.o(i.nrf_crypto_hash_compute) for nrf_crypto_hash_compute
    dfu_req_handling.o(i.nrf_dfu_postvalidate) refers to memcmp.o(.text) for memcmp
    dfu_req_handling.o(i.nrf_dfu_postvalidate) refers to memseta.o(.text) for __aeabi_memclr4
    dfu_req_handling.o(i.nrf_dfu_postvalidate) refers to dfu_req_handling.o(i.nrf_delay_us) for nrf_delay_us
    dfu_req_handling.o(i.nrf_dfu_postvalidate) refers to nrf_dfu.o(i.nrf_dfu_wait) for nrf_dfu_wait
    dfu_req_handling.o(i.nrf_dfu_postvalidate) refers to nrf_dfu_settings.o(i.nrf_dfu_settings_write) for nrf_dfu_settings_write
    dfu_req_handling.o(i.nrf_dfu_postvalidate) refers to dfu_req_handling.o(.data) for .data
    dfu_req_handling.o(i.nrf_dfu_postvalidate) refers to nrf_dfu_settings.o(.bss) for s_dfu_settings
    dfu_req_handling.o(i.nrf_dfu_postvalidate) refers to dfu_req_handling.o(.bss) for .bss
    dfu_req_handling.o(i.nrf_dfu_postvalidate) refers to dfu_req_handling.o(i.on_dfu_complete) for on_dfu_complete
    dfu_req_handling.o(i.nrf_dfu_req_handler_init) refers to nrf_dfu_flash.o(i.nrf_dfu_flash_init) for nrf_dfu_flash_init
    dfu_req_handling.o(i.nrf_dfu_req_handler_init) refers to dfu_req_handling.o(i.dfu_decode_commmand) for dfu_decode_commmand
    dfu_req_handling.o(i.nrf_dfu_req_handler_init) refers to nrf_dfu_utils.o(i.nrf_dfu_find_cache) for nrf_dfu_find_cache
    dfu_req_handling.o(i.nrf_dfu_req_handler_init) refers to dfu_req_handling.o(.data) for .data
    dfu_req_handling.o(i.nrf_dfu_req_handler_init) refers to nrf_dfu_settings.o(.bss) for s_dfu_settings
    dfu_req_handling.o(i.nrf_dfu_req_handler_on_req) refers to dfu_req_handling.o(i.nrf_dfu_command_req) for nrf_dfu_command_req
    dfu_req_handling.o(i.nrf_dfu_req_handler_on_req) refers to dfu_req_handling.o(i.nrf_dfu_data_req) for nrf_dfu_data_req
    dfu_req_handling.o(i.nrf_dfu_req_handler_on_req) refers to dfu_req_handling.o(.data) for .data
    dfu_req_handling.o(i.on_dfu_complete) refers to nrf_dfu_transport.o(i.nrf_dfu_transports_close) for nrf_dfu_transports_close
    dfu_req_handling.o(i.pb_decoding_callback) refers to dfu-cc.pb.o(.constdata) for dfu_init_command_fields
    dfu_req_handling.o(i.pb_decoding_callback) refers to dfu_req_handling.o(.data) for .data
    dfu_req_handling.o(.constdata) refers to dfu_public_key.o(.constdata) for pk
    main.o(i.app_error_fault_handler) refers to main.o(i.NVIC_SystemReset) for NVIC_SystemReset
    main.o(i.app_error_handler_bare) refers to main.o(i.NVIC_SystemReset) for NVIC_SystemReset
    main.o(i.main) refers to main.o(i.nrf_gpio_cfg) for nrf_gpio_cfg
    main.o(i.main) refers to nrf_bootloader.o(i.nrf_bootloader_init) for nrf_bootloader_init
    main.o(i.main) refers to main.o(i.NVIC_SystemReset) for NVIC_SystemReset
    main.o(i.main) refers to nrf_bootloader_app_start.o(i.nrf_bootloader_app_start) for nrf_bootloader_app_start
    drv_sx1509.o(i.drv_sx1509_clock_get) refers to drv_sx1509.o(i.reg_get) for reg_get
    drv_sx1509.o(i.drv_sx1509_clock_modify) refers to drv_sx1509.o(i.register_bits_modify) for register_bits_modify
    drv_sx1509.o(i.drv_sx1509_close) refers to nrf_drv_twi.o(i.nrf_drv_twi_disable) for nrf_drv_twi_disable
    drv_sx1509.o(i.drv_sx1509_close) refers to nrf_drv_twi.o(i.nrf_drv_twi_uninit) for nrf_drv_twi_uninit
    drv_sx1509.o(i.drv_sx1509_close) refers to drv_sx1509.o(.data) for .data
    drv_sx1509.o(i.drv_sx1509_data_get) refers to drv_sx1509.o(i.two_registers_get) for two_registers_get
    drv_sx1509.o(i.drv_sx1509_data_modify) refers to drv_sx1509.o(i.register_bits_modify) for register_bits_modify
    drv_sx1509.o(i.drv_sx1509_debounceconfig_get) refers to drv_sx1509.o(i.reg_get) for reg_get
    drv_sx1509.o(i.drv_sx1509_debounceconfig_modify) refers to drv_sx1509.o(i.register_bits_modify) for register_bits_modify
    drv_sx1509.o(i.drv_sx1509_debounceenable_get) refers to drv_sx1509.o(i.two_registers_get) for two_registers_get
    drv_sx1509.o(i.drv_sx1509_debounceenable_modify) refers to drv_sx1509.o(i.register_bits_modify) for register_bits_modify
    drv_sx1509.o(i.drv_sx1509_dir_get) refers to drv_sx1509.o(i.two_registers_get) for two_registers_get
    drv_sx1509.o(i.drv_sx1509_dir_modify) refers to drv_sx1509.o(i.register_bits_modify) for register_bits_modify
    drv_sx1509.o(i.drv_sx1509_eventstatus_clr) refers to drv_sx1509.o(i.reg_set) for reg_set
    drv_sx1509.o(i.drv_sx1509_eventstatus_get) refers to drv_sx1509.o(i.two_registers_get) for two_registers_get
    drv_sx1509.o(i.drv_sx1509_highinpmode_get) refers to drv_sx1509.o(i.two_registers_get) for two_registers_get
    drv_sx1509.o(i.drv_sx1509_highinpmode_modify) refers to drv_sx1509.o(i.register_bits_modify) for register_bits_modify
    drv_sx1509.o(i.drv_sx1509_init) refers to drv_sx1509.o(.data) for .data
    drv_sx1509.o(i.drv_sx1509_inpbufdisable_get) refers to drv_sx1509.o(i.two_registers_get) for two_registers_get
    drv_sx1509.o(i.drv_sx1509_inpbufdisable_modify) refers to drv_sx1509.o(i.register_bits_modify) for register_bits_modify
    drv_sx1509.o(i.drv_sx1509_interruptmask_get) refers to drv_sx1509.o(i.two_registers_get) for two_registers_get
    drv_sx1509.o(i.drv_sx1509_interruptmask_modify) refers to drv_sx1509.o(i.register_bits_modify) for register_bits_modify
    drv_sx1509.o(i.drv_sx1509_interruptsource_clr) refers to drv_sx1509.o(i.reg_set) for reg_set
    drv_sx1509.o(i.drv_sx1509_interruptsource_get) refers to drv_sx1509.o(i.two_registers_get) for two_registers_get
    drv_sx1509.o(i.drv_sx1509_keyconfig_get) refers to drv_sx1509.o(i.two_registers_get) for two_registers_get
    drv_sx1509.o(i.drv_sx1509_keyconfig_modify) refers to drv_sx1509.o(i.register_bits_modify) for register_bits_modify
    drv_sx1509.o(i.drv_sx1509_keydata_get) refers to drv_sx1509.o(i.two_registers_get) for two_registers_get
    drv_sx1509.o(i.drv_sx1509_leddriverenable_get) refers to drv_sx1509.o(i.two_registers_get) for two_registers_get
    drv_sx1509.o(i.drv_sx1509_leddriverenable_modify) refers to drv_sx1509.o(i.register_bits_modify) for register_bits_modify
    drv_sx1509.o(i.drv_sx1509_levelshifter_get) refers to drv_sx1509.o(i.reg_get) for reg_get
    drv_sx1509.o(i.drv_sx1509_levelshifter_modify) refers to drv_sx1509.o(i.register_bits_modify) for register_bits_modify
    drv_sx1509.o(i.drv_sx1509_longslewrate_get) refers to drv_sx1509.o(i.two_registers_get) for two_registers_get
    drv_sx1509.o(i.drv_sx1509_longslewrate_modify) refers to drv_sx1509.o(i.register_bits_modify) for register_bits_modify
    drv_sx1509.o(i.drv_sx1509_lowdrive_get) refers to drv_sx1509.o(i.two_registers_get) for two_registers_get
    drv_sx1509.o(i.drv_sx1509_lowdrive_modify) refers to drv_sx1509.o(i.register_bits_modify) for register_bits_modify
    drv_sx1509.o(i.drv_sx1509_misc_get) refers to drv_sx1509.o(i.reg_get) for reg_get
    drv_sx1509.o(i.drv_sx1509_misc_modify) refers to drv_sx1509.o(i.register_bits_modify) for register_bits_modify
    drv_sx1509.o(i.drv_sx1509_onoffcfgx_get) refers to drv_sx1509.o(i.m_onoffcfgx_base_addr_get) for m_onoffcfgx_base_addr_get
    drv_sx1509.o(i.drv_sx1509_onoffcfgx_get) refers to drv_sx1509.o(i.reg_get) for reg_get
    drv_sx1509.o(i.drv_sx1509_onoffcfgx_modify) refers to drv_sx1509.o(i.m_onoffcfgx_base_addr_get) for m_onoffcfgx_base_addr_get
    drv_sx1509.o(i.drv_sx1509_onoffcfgx_modify) refers to drv_sx1509.o(i.register_bits_modify) for register_bits_modify
    drv_sx1509.o(i.drv_sx1509_open) refers to twi_manager.o(i.twi_manager_request) for twi_manager_request
    drv_sx1509.o(i.drv_sx1509_open) refers to nrf_drv_twi.o(i.nrf_drv_twi_enable) for nrf_drv_twi_enable
    drv_sx1509.o(i.drv_sx1509_open) refers to drv_sx1509.o(.data) for .data
    drv_sx1509.o(i.drv_sx1509_opendrain_get) refers to drv_sx1509.o(i.two_registers_get) for two_registers_get
    drv_sx1509.o(i.drv_sx1509_opendrain_modify) refers to drv_sx1509.o(i.register_bits_modify) for register_bits_modify
    drv_sx1509.o(i.drv_sx1509_polarity_get) refers to drv_sx1509.o(i.two_registers_get) for two_registers_get
    drv_sx1509.o(i.drv_sx1509_polarity_modify) refers to drv_sx1509.o(i.register_bits_modify) for register_bits_modify
    drv_sx1509.o(i.drv_sx1509_pulldown_get) refers to drv_sx1509.o(i.two_registers_get) for two_registers_get
    drv_sx1509.o(i.drv_sx1509_pulldown_modify) refers to drv_sx1509.o(i.register_bits_modify) for register_bits_modify
    drv_sx1509.o(i.drv_sx1509_pullup_get) refers to drv_sx1509.o(i.two_registers_get) for two_registers_get
    drv_sx1509.o(i.drv_sx1509_pullup_modify) refers to drv_sx1509.o(i.register_bits_modify) for register_bits_modify
    drv_sx1509.o(i.drv_sx1509_reg_get) refers to drv_sx1509.o(i.reg_get) for reg_get
    drv_sx1509.o(i.drv_sx1509_reset) refers to drv_sx1509.o(i.multi_byte_register_set) for multi_byte_register_set
    drv_sx1509.o(i.drv_sx1509_reset) refers to drv_sx1509.o(i.nrf_delay_us) for nrf_delay_us
    drv_sx1509.o(i.drv_sx1509_risefallcfgx_get) refers to drv_sx1509.o(i.m_risefallcfgx_base_addr_get) for m_risefallcfgx_base_addr_get
    drv_sx1509.o(i.drv_sx1509_risefallcfgx_get) refers to drv_sx1509.o(i.reg_get) for reg_get
    drv_sx1509.o(i.drv_sx1509_risefallcfgx_modify) refers to drv_sx1509.o(i.m_risefallcfgx_base_addr_get) for m_risefallcfgx_base_addr_get
    drv_sx1509.o(i.drv_sx1509_risefallcfgx_modify) refers to drv_sx1509.o(i.register_bits_modify) for register_bits_modify
    drv_sx1509.o(i.drv_sx1509_sense_get) refers to drv_sx1509.o(i.reg_get) for reg_get
    drv_sx1509.o(i.drv_sx1509_sense_modify) refers to drv_sx1509.o(i.register_bits_modify) for register_bits_modify
    drv_sx1509.o(i.multi_byte_register_set) refers to nrf_drv_twi.o(i.nrf_drv_twi_tx) for nrf_drv_twi_tx
    drv_sx1509.o(i.multi_byte_register_set) refers to drv_sx1509.o(.data) for .data
    drv_sx1509.o(i.nrf_delay_us) refers to system_nrf52.o(.data) for SystemCoreClock
    drv_sx1509.o(i.reg_get) refers to nrf_drv_twi.o(i.nrf_drv_twi_tx) for nrf_drv_twi_tx
    drv_sx1509.o(i.reg_get) refers to nrf_drv_twi.o(i.nrf_drv_twi_rx) for nrf_drv_twi_rx
    drv_sx1509.o(i.reg_get) refers to drv_sx1509.o(.data) for .data
    drv_sx1509.o(i.reg_set) refers to nrf_drv_twi.o(i.nrf_drv_twi_tx) for nrf_drv_twi_tx
    drv_sx1509.o(i.reg_set) refers to drv_sx1509.o(.data) for .data
    drv_sx1509.o(i.register_bits_modify) refers to drv_sx1509.o(i.reg_get) for reg_get
    drv_sx1509.o(i.register_bits_modify) refers to drv_sx1509.o(i.reg_set) for reg_set
    drv_sx1509.o(i.register_bits_modify) refers to drv_sx1509.o(.data) for .data
    drv_sx1509.o(i.two_registers_get) refers to drv_sx1509.o(i.reg_get) for reg_get
    drv_sx1509.o(i.two_registers_get) refers to drv_sx1509.o(.data) for .data
    twi_manager.o(i.twi_manager_collision_get) refers to twi_manager.o(.data) for .data
    twi_manager.o(i.twi_manager_collision_reset) refers to twi_manager.o(.data) for .data
    twi_manager.o(i.twi_manager_init) refers to twi_manager.o(.data) for .data
    twi_manager.o(i.twi_manager_release) refers to nrf_drv_twi.o(i.nrf_drv_twi_uninit) for nrf_drv_twi_uninit
    twi_manager.o(i.twi_manager_request) refers to nrf_drv_twi.o(i.nrf_drv_twi_init) for nrf_drv_twi_init
    twi_manager.o(i.twi_manager_request) refers to twi_manager.o(.data) for .data
    nrf_drv_twi.o(i.SPIM0_SPIS0_TWIM0_TWIS0_SPI0_TWI0_IRQHandler) refers to nrf_drv_twi.o(i.irq_handler_twi) for irq_handler_twi
    nrf_drv_twi.o(i.SPIM0_SPIS0_TWIM0_TWIS0_SPI0_TWI0_IRQHandler) refers to nrf_drv_twi.o(.bss) for .bss
    nrf_drv_twi.o(i.irq_handler_twi) refers to nrf_drv_twi.o(i.twi_transfer) for twi_transfer
    nrf_drv_twi.o(i.irq_handler_twi) refers to nrf_drv_twi.o(i.twi_rx_start_transfer) for twi_rx_start_transfer
    nrf_drv_twi.o(i.irq_handler_twi) refers to nrf_drv_twi.o(i.twi_tx_start_transfer) for twi_tx_start_transfer
    nrf_drv_twi.o(i.nrf_delay_us) refers to system_nrf52.o(.data) for SystemCoreClock
    nrf_drv_twi.o(i.nrf_drv_twi_data_count_get) refers to nrf_drv_twi.o(.bss) for .bss
    nrf_drv_twi.o(i.nrf_drv_twi_disable) refers to nrf_drv_twi.o(.bss) for .bss
    nrf_drv_twi.o(i.nrf_drv_twi_enable) refers to nrf_drv_twi.o(.bss) for .bss
    nrf_drv_twi.o(i.nrf_drv_twi_init) refers to nrf_drv_twi.o(i.twi_clear_bus) for twi_clear_bus
    nrf_drv_twi.o(i.nrf_drv_twi_init) refers to nrf_drv_common.o(i.nrf_drv_common_irq_enable) for nrf_drv_common_irq_enable
    nrf_drv_twi.o(i.nrf_drv_twi_init) refers to nrf_drv_twi.o(.bss) for .bss
    nrf_drv_twi.o(i.nrf_drv_twi_rx) refers to nrf_drv_twi.o(i.nrf_drv_twi_xfer) for nrf_drv_twi_xfer
    nrf_drv_twi.o(i.nrf_drv_twi_rx) refers to nrf_drv_twi.o(.constdata) for .constdata
    nrf_drv_twi.o(i.nrf_drv_twi_tx) refers to nrf_drv_twi.o(i.nrf_drv_twi_xfer) for nrf_drv_twi_xfer
    nrf_drv_twi.o(i.nrf_drv_twi_uninit) refers to nrf_drv_twi.o(i.nrf_drv_twi_disable) for nrf_drv_twi_disable
    nrf_drv_twi.o(i.nrf_drv_twi_uninit) refers to nrf_drv_twi.o(.bss) for .bss
    nrf_drv_twi.o(i.nrf_drv_twi_xfer) refers to nrf_drv_twi.o(i.twi_xfer) for twi_xfer
    nrf_drv_twi.o(i.nrf_drv_twi_xfer) refers to nrf_drv_twi.o(.bss) for .bss
    nrf_drv_twi.o(i.twi_clear_bus) refers to nrf_drv_twi.o(i.nrf_gpio_pin_set) for nrf_gpio_pin_set
    nrf_drv_twi.o(i.twi_clear_bus) refers to nrf_drv_twi.o(i.nrf_delay_us) for nrf_delay_us
    nrf_drv_twi.o(i.twi_rx_start_transfer) refers to nrf_drv_twi.o(i.nrf_twi_event_clear) for nrf_twi_event_clear
    nrf_drv_twi.o(i.twi_rx_start_transfer) refers to nrf_drv_twi.o(i.twi_transfer) for twi_transfer
    nrf_drv_twi.o(i.twi_rx_start_transfer) refers to nrf_drv_twi.o(i.twi_process_error) for twi_process_error
    nrf_drv_twi.o(i.twi_transfer) refers to nrf_drv_twi.o(i.nrf_twi_event_clear) for nrf_twi_event_clear
    nrf_drv_twi.o(i.twi_transfer) refers to nrf_drv_twi.o(i.nrf_twi_event_check) for nrf_twi_event_check
    nrf_drv_twi.o(i.twi_transfer) refers to nrf_drv_twi.o(i.twi_send_byte) for twi_send_byte
    nrf_drv_twi.o(i.twi_tx_start_transfer) refers to nrf_drv_twi.o(i.nrf_twi_event_clear) for nrf_twi_event_clear
    nrf_drv_twi.o(i.twi_tx_start_transfer) refers to nrf_drv_twi.o(i.twi_send_byte) for twi_send_byte
    nrf_drv_twi.o(i.twi_tx_start_transfer) refers to nrf_drv_twi.o(i.twi_transfer) for twi_transfer
    nrf_drv_twi.o(i.twi_tx_start_transfer) refers to nrf_drv_twi.o(i.twi_process_error) for twi_process_error
    nrf_drv_twi.o(i.twi_xfer) refers to nrf_drv_twi.o(i.twi_tx_start_transfer) for twi_tx_start_transfer
    nrf_drv_twi.o(i.twi_xfer) refers to nrf_drv_twi.o(i.twi_rx_start_transfer) for twi_rx_start_transfer
    drv_ext_light.o(i.drv_ext_light_init) refers to segger_rtt_printf.o(i.SEGGER_RTT_printf) for SEGGER_RTT_printf
    drv_ext_light.o(i.drv_ext_light_init) refers to sx150x_led_drv_calc.o(i.sx150x_led_drv_calc_init) for sx150x_led_drv_calc_init
    drv_ext_light.o(i.drv_ext_light_init) refers to drv_sx1509.o(i.drv_sx1509_init) for drv_sx1509_init
    drv_ext_light.o(i.drv_ext_light_init) refers to drv_sx1509.o(i.drv_sx1509_open) for drv_sx1509_open
    drv_ext_light.o(i.drv_ext_light_init) refers to drv_sx1509.o(i.drv_sx1509_reset) for drv_sx1509_reset
    drv_ext_light.o(i.drv_ext_light_init) refers to drv_sx1509.o(i.drv_sx1509_misc_modify) for drv_sx1509_misc_modify
    drv_ext_light.o(i.drv_ext_light_init) refers to app_timer.o(i.app_timer_create) for app_timer_create
    drv_ext_light.o(i.drv_ext_light_init) refers to drv_ext_light.o(i.m_port_mask_create) for m_port_mask_create
    drv_ext_light.o(i.drv_ext_light_init) refers to drv_sx1509.o(i.drv_sx1509_inpbufdisable_modify) for drv_sx1509_inpbufdisable_modify
    drv_ext_light.o(i.drv_ext_light_init) refers to drv_sx1509.o(i.drv_sx1509_data_modify) for drv_sx1509_data_modify
    drv_ext_light.o(i.drv_ext_light_init) refers to drv_sx1509.o(i.drv_sx1509_pullup_modify) for drv_sx1509_pullup_modify
    drv_ext_light.o(i.drv_ext_light_init) refers to drv_sx1509.o(i.drv_sx1509_pulldown_modify) for drv_sx1509_pulldown_modify
    drv_ext_light.o(i.drv_ext_light_init) refers to drv_sx1509.o(i.drv_sx1509_opendrain_modify) for drv_sx1509_opendrain_modify
    drv_ext_light.o(i.drv_ext_light_init) refers to drv_ext_light.o(i.m_is_monochrome_light) for m_is_monochrome_light
    drv_ext_light.o(i.drv_ext_light_init) refers to drv_ext_light.o(i.m_pin_within_range_check) for m_pin_within_range_check
    drv_ext_light.o(i.drv_ext_light_init) refers to drv_sx1509.o(i.drv_sx1509_dir_modify) for drv_sx1509_dir_modify
    drv_ext_light.o(i.drv_ext_light_init) refers to drv_ext_light.o(i.m_is_rgb_light) for m_is_rgb_light
    drv_ext_light.o(i.drv_ext_light_init) refers to drv_sx1509.o(i.drv_sx1509_close) for drv_sx1509_close
    drv_ext_light.o(i.drv_ext_light_init) refers to drv_ext_light.o(.conststring) for .conststring
    drv_ext_light.o(i.drv_ext_light_init) refers to drv_ext_light.o(.data) for .data
    drv_ext_light.o(i.drv_ext_light_init) refers to drv_ext_light.o(i.m_light_timer_handler) for m_light_timer_handler
    drv_ext_light.o(i.drv_ext_light_intensity_set) refers to memcpya.o(.text) for __aeabi_memcpy4
    drv_ext_light.o(i.drv_ext_light_intensity_set) refers to drv_ext_light.o(i.m_ioext_cmd_process) for m_ioext_cmd_process
    drv_ext_light.o(i.drv_ext_light_intensity_set) refers to segger_rtt_printf.o(i.SEGGER_RTT_printf) for SEGGER_RTT_printf
    drv_ext_light.o(i.drv_ext_light_intensity_set) refers to drv_ext_light.o(.data) for .data
    drv_ext_light.o(i.drv_ext_light_intensity_set) refers to drv_ext_light.o(.constdata) for .constdata
    drv_ext_light.o(i.drv_ext_light_intensity_set) refers to drv_ext_light.o(.conststring) for .conststring
    drv_ext_light.o(i.drv_ext_light_off) refers to memcpya.o(.text) for __aeabi_memcpy4
    drv_ext_light.o(i.drv_ext_light_off) refers to drv_ext_light.o(i.m_ioext_cmd_process) for m_ioext_cmd_process
    drv_ext_light.o(i.drv_ext_light_off) refers to segger_rtt_printf.o(i.SEGGER_RTT_printf) for SEGGER_RTT_printf
    drv_ext_light.o(i.drv_ext_light_off) refers to drv_ext_light.o(.data) for .data
    drv_ext_light.o(i.drv_ext_light_off) refers to drv_ext_light.o(.constdata) for .constdata
    drv_ext_light.o(i.drv_ext_light_off) refers to drv_ext_light.o(.conststring) for .conststring
    drv_ext_light.o(i.drv_ext_light_on) refers to memcpya.o(.text) for __aeabi_memcpy4
    drv_ext_light.o(i.drv_ext_light_on) refers to drv_ext_light.o(i.m_ioext_cmd_process) for m_ioext_cmd_process
    drv_ext_light.o(i.drv_ext_light_on) refers to segger_rtt_printf.o(i.SEGGER_RTT_printf) for SEGGER_RTT_printf
    drv_ext_light.o(i.drv_ext_light_on) refers to drv_ext_light.o(.data) for .data
    drv_ext_light.o(i.drv_ext_light_on) refers to drv_ext_light.o(.constdata) for .constdata
    drv_ext_light.o(i.drv_ext_light_on) refers to drv_ext_light.o(.conststring) for .conststring
    drv_ext_light.o(i.drv_ext_light_reset) refers to drv_sx1509.o(i.drv_sx1509_open) for drv_sx1509_open
    drv_ext_light.o(i.drv_ext_light_reset) refers to drv_sx1509.o(i.drv_sx1509_reset) for drv_sx1509_reset
    drv_ext_light.o(i.drv_ext_light_reset) refers to drv_sx1509.o(i.drv_sx1509_close) for drv_sx1509_close
    drv_ext_light.o(i.drv_ext_light_reset) refers to segger_rtt_printf.o(i.SEGGER_RTT_printf) for SEGGER_RTT_printf
    drv_ext_light.o(i.drv_ext_light_reset) refers to drv_ext_light.o(.data) for .data
    drv_ext_light.o(i.drv_ext_light_reset) refers to drv_ext_light.o(.conststring) for .conststring
    drv_ext_light.o(i.drv_ext_light_rgb_intensity_set) refers to drv_ext_light.o(i.m_is_monochrome_light) for m_is_monochrome_light
    drv_ext_light.o(i.drv_ext_light_rgb_intensity_set) refers to drv_ext_light.o(i.m_rgb_intensity) for m_rgb_intensity
    drv_ext_light.o(i.drv_ext_light_rgb_intensity_set) refers to segger_rtt_printf.o(i.SEGGER_RTT_printf) for SEGGER_RTT_printf
    drv_ext_light.o(i.drv_ext_light_rgb_intensity_set) refers to drv_ext_light.o(.data) for .data
    drv_ext_light.o(i.drv_ext_light_rgb_intensity_set) refers to drv_ext_light.o(.conststring) for .conststring
    drv_ext_light.o(i.drv_ext_light_rgb_sequence) refers to drv_ext_light.o(i.m_is_monochrome_light) for m_is_monochrome_light
    drv_ext_light.o(i.drv_ext_light_rgb_sequence) refers to drv_ext_light.o(i.m_ioext_cmd_process) for m_ioext_cmd_process
    drv_ext_light.o(i.drv_ext_light_rgb_sequence) refers to segger_rtt_printf.o(i.SEGGER_RTT_printf) for SEGGER_RTT_printf
    drv_ext_light.o(i.drv_ext_light_rgb_sequence) refers to drv_ext_light.o(.data) for .data
    drv_ext_light.o(i.drv_ext_light_rgb_sequence) refers to drv_ext_light.o(.conststring) for .conststring
    drv_ext_light.o(i.drv_ext_light_sequence) refers to memcpya.o(.text) for __aeabi_memcpy4
    drv_ext_light.o(i.drv_ext_light_sequence) refers to drv_ext_light.o(i.m_ioext_cmd_process) for m_ioext_cmd_process
    drv_ext_light.o(i.drv_ext_light_sequence) refers to segger_rtt_printf.o(i.SEGGER_RTT_printf) for SEGGER_RTT_printf
    drv_ext_light.o(i.drv_ext_light_sequence) refers to drv_ext_light.o(.data) for .data
    drv_ext_light.o(i.drv_ext_light_sequence) refers to drv_ext_light.o(.conststring) for .conststring
    drv_ext_light.o(i.ioext_osc_start_stop) refers to drv_sx1509.o(i.drv_sx1509_open) for drv_sx1509_open
    drv_ext_light.o(i.ioext_osc_start_stop) refers to main.o(i.app_error_handler_bare) for app_error_handler_bare
    drv_ext_light.o(i.ioext_osc_start_stop) refers to drv_sx1509.o(i.drv_sx1509_clock_modify) for drv_sx1509_clock_modify
    drv_ext_light.o(i.ioext_osc_start_stop) refers to drv_sx1509.o(i.drv_sx1509_close) for drv_sx1509_close
    drv_ext_light.o(i.ioext_osc_start_stop) refers to drv_ext_light.o(.data) for .data
    drv_ext_light.o(i.m_ioext_cmd_process) refers to app_timer.o(i.app_timer_stop) for app_timer_stop
    drv_ext_light.o(i.m_ioext_cmd_process) refers to drv_ext_light.o(i.m_port_mask_create) for m_port_mask_create
    drv_ext_light.o(i.m_ioext_cmd_process) refers to sx150x_led_drv_calc.o(i.sx150x_led_drv_calc_convert) for sx150x_led_drv_calc_convert
    drv_ext_light.o(i.m_ioext_cmd_process) refers to drv_ext_light.o(i.m_io_ext_oper_mode_chk) for m_io_ext_oper_mode_chk
    drv_ext_light.o(i.m_ioext_cmd_process) refers to drv_ext_light.o(i.m_ioext_osc_status_change) for m_ioext_osc_status_change
    drv_ext_light.o(i.m_ioext_cmd_process) refers to drv_ext_light.o(i.m_ioext_color_select_cmd_send) for m_ioext_color_select_cmd_send
    drv_ext_light.o(i.m_ioext_cmd_process) refers to segger_rtt_printf.o(i.SEGGER_RTT_printf) for SEGGER_RTT_printf
    drv_ext_light.o(i.m_ioext_cmd_process) refers to drv_ext_light.o(i.m_osc_on_margin_calculate) for m_osc_on_margin_calculate
    drv_ext_light.o(i.m_ioext_cmd_process) refers to uldiv.o(.text) for __aeabi_uldivmod
    drv_ext_light.o(i.m_ioext_cmd_process) refers to app_timer.o(i.app_timer_start) for app_timer_start
    drv_ext_light.o(i.m_ioext_cmd_process) refers to drv_ext_light.o(.data) for .data
    drv_ext_light.o(i.m_ioext_cmd_process) refers to drv_ext_light.o(.conststring) for .conststring
    drv_ext_light.o(i.m_ioext_cmd_process_rgb_intensity) refers to drv_ext_light.o(i.m_ioext_led_drv_ctrl) for m_ioext_led_drv_ctrl
    drv_ext_light.o(i.m_ioext_cmd_process_rgb_intensity) refers to drv_ext_light.o(.constdata) for .constdata
    drv_ext_light.o(i.m_ioext_color_select_cmd_send) refers to drv_ext_light.o(i.m_is_monochrome_light) for m_is_monochrome_light
    drv_ext_light.o(i.m_ioext_color_select_cmd_send) refers to drv_ext_light.o(i.m_ioext_led_drv_ctrl) for m_ioext_led_drv_ctrl
    drv_ext_light.o(i.m_ioext_color_select_cmd_send) refers to segger_rtt_printf.o(i.SEGGER_RTT_printf) for SEGGER_RTT_printf
    drv_ext_light.o(i.m_ioext_color_select_cmd_send) refers to drv_ext_light.o(i.m_is_rgb_light) for m_is_rgb_light
    drv_ext_light.o(i.m_ioext_color_select_cmd_send) refers to drv_ext_light.o(.data) for .data
    drv_ext_light.o(i.m_ioext_color_select_cmd_send) refers to drv_ext_light.o(.conststring) for .conststring
    drv_ext_light.o(i.m_ioext_led_drv_ctrl) refers to drv_sx1509.o(i.drv_sx1509_open) for drv_sx1509_open
    drv_ext_light.o(i.m_ioext_led_drv_ctrl) refers to drv_sx1509.o(i.drv_sx1509_onoffcfgx_modify) for drv_sx1509_onoffcfgx_modify
    drv_ext_light.o(i.m_ioext_led_drv_ctrl) refers to segger_rtt_printf.o(i.SEGGER_RTT_printf) for SEGGER_RTT_printf
    drv_ext_light.o(i.m_ioext_led_drv_ctrl) refers to drv_sx1509.o(i.drv_sx1509_leddriverenable_modify) for drv_sx1509_leddriverenable_modify
    drv_ext_light.o(i.m_ioext_led_drv_ctrl) refers to drv_sx1509.o(i.drv_sx1509_data_modify) for drv_sx1509_data_modify
    drv_ext_light.o(i.m_ioext_led_drv_ctrl) refers to sx150x_led_drv_calc.o(i.sx150x_led_drv_calc_fade_supp) for sx150x_led_drv_calc_fade_supp
    drv_ext_light.o(i.m_ioext_led_drv_ctrl) refers to drv_sx1509.o(i.drv_sx1509_risefallcfgx_modify) for drv_sx1509_risefallcfgx_modify
    drv_ext_light.o(i.m_ioext_led_drv_ctrl) refers to drv_sx1509.o(i.drv_sx1509_close) for drv_sx1509_close
    drv_ext_light.o(i.m_ioext_led_drv_ctrl) refers to drv_ext_light.o(.data) for .data
    drv_ext_light.o(i.m_ioext_led_drv_ctrl) refers to drv_ext_light.o(.conststring) for .conststring
    drv_ext_light.o(i.m_ioext_osc_status_change) refers to drv_ext_light.o(i.ioext_osc_start_stop) for ioext_osc_start_stop
    drv_ext_light.o(i.m_ioext_osc_status_change) refers to segger_rtt_printf.o(i.SEGGER_RTT_printf) for SEGGER_RTT_printf
    drv_ext_light.o(i.m_ioext_osc_status_change) refers to drv_ext_light.o(.data) for .data
    drv_ext_light.o(i.m_ioext_osc_status_change) refers to drv_ext_light.o(.constdata) for .constdata
    drv_ext_light.o(i.m_ioext_osc_status_change) refers to drv_ext_light.o(.conststring) for .conststring
    drv_ext_light.o(i.m_is_monochrome_light) refers to drv_ext_light.o(.data) for .data
    drv_ext_light.o(i.m_is_rgb_light) refers to drv_ext_light.o(.data) for .data
    drv_ext_light.o(i.m_led_driver_sequence_restart) refers to drv_sx1509.o(i.drv_sx1509_data_modify) for drv_sx1509_data_modify
    drv_ext_light.o(i.m_led_driver_sequence_restart) refers to segger_rtt_printf.o(i.SEGGER_RTT_printf) for SEGGER_RTT_printf
    drv_ext_light.o(i.m_led_driver_sequence_restart) refers to drv_ext_light.o(.conststring) for .conststring
    drv_ext_light.o(i.m_light_timer_handler) refers to uldiv.o(.text) for __aeabi_uldivmod
    drv_ext_light.o(i.m_light_timer_handler) refers to app_timer.o(i.app_timer_start) for app_timer_start
    drv_ext_light.o(i.m_light_timer_handler) refers to main.o(i.app_error_handler_bare) for app_error_handler_bare
    drv_ext_light.o(i.m_light_timer_handler) refers to drv_ext_light.o(i.m_ioext_osc_status_change) for m_ioext_osc_status_change
    drv_ext_light.o(i.m_light_timer_handler) refers to drv_ext_light.o(i.m_osc_on_margin_calculate) for m_osc_on_margin_calculate
    drv_ext_light.o(i.m_light_timer_handler) refers to drv_sx1509.o(i.drv_sx1509_open) for drv_sx1509_open
    drv_ext_light.o(i.m_light_timer_handler) refers to drv_ext_light.o(i.m_port_mask_create) for m_port_mask_create
    drv_ext_light.o(i.m_light_timer_handler) refers to drv_ext_light.o(i.m_led_driver_sequence_restart) for m_led_driver_sequence_restart
    drv_ext_light.o(i.m_light_timer_handler) refers to drv_sx1509.o(i.drv_sx1509_close) for drv_sx1509_close
    drv_ext_light.o(i.m_light_timer_handler) refers to drv_ext_light.o(.data) for .data
    drv_ext_light.o(i.m_port_mask_create) refers to drv_ext_light.o(i.m_is_monochrome_light) for m_is_monochrome_light
    drv_ext_light.o(i.m_port_mask_create) refers to drv_ext_light.o(i.m_is_rgb_light) for m_is_rgb_light
    drv_ext_light.o(i.m_port_mask_create) refers to drv_ext_light.o(.data) for .data
    drv_ext_light.o(i.m_rgb_intensity) refers to app_timer.o(i.app_timer_stop) for app_timer_stop
    drv_ext_light.o(i.m_rgb_intensity) refers to drv_ext_light.o(i.m_ioext_osc_status_change) for m_ioext_osc_status_change
    drv_ext_light.o(i.m_rgb_intensity) refers to drv_ext_light.o(i.m_ioext_cmd_process_rgb_intensity) for m_ioext_cmd_process_rgb_intensity
    drv_ext_light.o(i.m_rgb_intensity) refers to segger_rtt_printf.o(i.SEGGER_RTT_printf) for SEGGER_RTT_printf
    drv_ext_light.o(i.m_rgb_intensity) refers to drv_ext_light.o(.data) for .data
    drv_ext_light.o(i.m_rgb_intensity) refers to drv_ext_light.o(.conststring) for .conststring
    sx150x_led_drv_calc.o(i.optimal_time_settings_onoff_calculate) refers to f2d.o(.text) for __aeabi_f2d
    sx150x_led_drv_calc.o(i.optimal_time_settings_onoff_calculate) refers to round.o(i.__hardfp_round) for __hardfp_round
    sx150x_led_drv_calc.o(i.optimal_time_settings_onoff_calculate) refers to dfixui.o(.text) for __aeabi_d2uiz
    sx150x_led_drv_calc.o(i.optimal_time_settings_onoff_calculate) refers to sx150x_led_drv_calc.o(i.diff_above_limit) for diff_above_limit
    sx150x_led_drv_calc.o(i.optimal_time_settings_onoff_calculate) refers to sx150x_led_drv_calc.o(.data) for .data
    sx150x_led_drv_calc.o(i.optimal_time_settings_risefall_calculate) refers to f2d.o(.text) for __aeabi_f2d
    sx150x_led_drv_calc.o(i.optimal_time_settings_risefall_calculate) refers to round.o(i.__hardfp_round) for __hardfp_round
    sx150x_led_drv_calc.o(i.optimal_time_settings_risefall_calculate) refers to dfixui.o(.text) for __aeabi_d2uiz
    sx150x_led_drv_calc.o(i.optimal_time_settings_risefall_calculate) refers to sx150x_led_drv_calc.o(i.diff_above_limit) for diff_above_limit
    sx150x_led_drv_calc.o(i.optimal_time_settings_risefall_calculate) refers to sx150x_led_drv_calc.o(.data) for .data
    sx150x_led_drv_calc.o(i.sx150x_led_drv_calc_convert) refers to sx150x_led_drv_calc.o(i.optimal_time_settings_onoff_calculate) for optimal_time_settings_onoff_calculate
    sx150x_led_drv_calc.o(i.sx150x_led_drv_calc_convert) refers to sx150x_led_drv_calc.o(i.sx150x_led_drv_calc_fade_supp) for sx150x_led_drv_calc_fade_supp
    sx150x_led_drv_calc.o(i.sx150x_led_drv_calc_convert) refers to sx150x_led_drv_calc.o(i.optimal_time_settings_risefall_calculate) for optimal_time_settings_risefall_calculate
    sx150x_led_drv_calc.o(i.sx150x_led_drv_calc_convert) refers to sx150x_led_drv_calc.o(.data) for .data
    sx150x_led_drv_calc.o(i.sx150x_led_drv_calc_convert) refers to sx150x_led_drv_calc.o(.constdata) for .constdata
    sx150x_led_drv_calc.o(i.sx150x_led_drv_calc_fade_supp) refers to sx150x_led_drv_calc.o(.data) for .data
    sx150x_led_drv_calc.o(i.sx150x_led_drv_calc_init) refers to sx150x_led_drv_calc.o(.data) for .data
    ble_advdata.o(i.adv_data_encode) refers to ble_advdata.o(i.ble_device_addr_encode) for ble_device_addr_encode
    ble_advdata.o(i.adv_data_encode) refers to ble_advdata.o(i.uint16_encode) for uint16_encode
    ble_advdata.o(i.adv_data_encode) refers to ble_advdata.o(i.uuid_list_encode) for uuid_list_encode
    ble_advdata.o(i.adv_data_encode) refers to ble_advdata.o(i.conn_int_encode) for conn_int_encode
    ble_advdata.o(i.adv_data_encode) refers to ble_advdata.o(i.manuf_specific_data_encode) for manuf_specific_data_encode
    ble_advdata.o(i.adv_data_encode) refers to ble_advdata.o(i.service_data_encode) for service_data_encode
    ble_advdata.o(i.adv_data_encode) refers to ble_advdata.o(i.name_encode) for name_encode
    ble_advdata.o(i.ble_advdata_set) refers to ble_advdata.o(i.adv_data_encode) for adv_data_encode
    ble_advdata.o(i.conn_int_encode) refers to ble_advdata.o(i.uint16_encode) for uint16_encode
    ble_advdata.o(i.manuf_specific_data_encode) refers to ble_advdata.o(i.uint16_encode) for uint16_encode
    ble_advdata.o(i.manuf_specific_data_encode) refers to memcpya.o(.text) for __aeabi_memcpy
    ble_advdata.o(i.service_data_encode) refers to ble_advdata.o(i.uint16_encode) for uint16_encode
    ble_advdata.o(i.service_data_encode) refers to memcpya.o(.text) for __aeabi_memcpy
    ble_advdata.o(i.uuid_list_encode) refers to ble_advdata.o(i.uuid_list_sized_encode) for uuid_list_sized_encode
    ble_conn_params.o(i.ble_conn_params_change_conn_params) refers to ble_conn_params.o(i.is_conn_params_ok) for is_conn_params_ok
    ble_conn_params.o(i.ble_conn_params_change_conn_params) refers to ble_conn_params.o(.data) for .data
    ble_conn_params.o(i.ble_conn_params_change_conn_params) refers to ble_conn_params.o(.bss) for .bss
    ble_conn_params.o(i.ble_conn_params_init) refers to memcpya.o(.text) for __aeabi_memcpy4
    ble_conn_params.o(i.ble_conn_params_init) refers to app_timer.o(i.app_timer_create) for app_timer_create
    ble_conn_params.o(i.ble_conn_params_init) refers to ble_conn_params.o(.bss) for .bss
    ble_conn_params.o(i.ble_conn_params_init) refers to ble_conn_params.o(.data) for .data
    ble_conn_params.o(i.ble_conn_params_init) refers to ble_conn_params.o(i.update_timeout_handler) for update_timeout_handler
    ble_conn_params.o(i.ble_conn_params_init) refers to ble_conn_params.o(.constdata) for .constdata
    ble_conn_params.o(i.ble_conn_params_on_ble_evt) refers to ble_srv_common.o(i.ble_srv_is_notification_enabled) for ble_srv_is_notification_enabled
    ble_conn_params.o(i.ble_conn_params_on_ble_evt) refers to ble_conn_params.o(i.conn_params_negotiation) for conn_params_negotiation
    ble_conn_params.o(i.ble_conn_params_on_ble_evt) refers to app_timer.o(i.app_timer_stop) for app_timer_stop
    ble_conn_params.o(i.ble_conn_params_on_ble_evt) refers to ble_conn_params.o(.data) for .data
    ble_conn_params.o(i.ble_conn_params_on_ble_evt) refers to ble_conn_params.o(.bss) for .bss
    ble_conn_params.o(i.ble_conn_params_on_ble_evt) refers to ble_conn_params.o(.constdata) for .constdata
    ble_conn_params.o(i.ble_conn_params_stop) refers to app_timer.o(i.app_timer_stop) for app_timer_stop
    ble_conn_params.o(i.ble_conn_params_stop) refers to ble_conn_params.o(.constdata) for .constdata
    ble_conn_params.o(i.conn_params_negotiation) refers to ble_conn_params.o(i.is_conn_params_ok) for is_conn_params_ok
    ble_conn_params.o(i.conn_params_negotiation) refers to app_timer.o(i.app_timer_start) for app_timer_start
    ble_conn_params.o(i.conn_params_negotiation) refers to ble_conn_params.o(.data) for .data
    ble_conn_params.o(i.conn_params_negotiation) refers to ble_conn_params.o(.bss) for .bss
    ble_conn_params.o(i.conn_params_negotiation) refers to ble_conn_params.o(.constdata) for .constdata
    ble_conn_params.o(i.is_conn_params_ok) refers to ble_conn_params.o(.data) for .data
    ble_conn_params.o(i.update_timeout_handler) refers to ble_conn_params.o(.data) for .data
    ble_conn_params.o(i.update_timeout_handler) refers to ble_conn_params.o(.bss) for .bss
    ble_conn_params.o(.constdata) refers to ble_conn_params.o(.bss) for m_conn_params_timer_id_data
    ble_srv_common.o(i.ble_srv_ascii_to_utf8) refers to strlen.o(.text) for strlen
    ble_srv_common.o(i.characteristic_add) refers to ble_srv_common.o(i.set_security_req) for set_security_req
    ble_srv_common.o(i.characteristic_add) refers to memseta.o(.text) for __aeabi_memclr4
    ble_srv_common.o(i.descriptor_add) refers to memseta.o(.text) for __aeabi_memclr4
    ble_srv_common.o(i.descriptor_add) refers to ble_srv_common.o(i.set_security_req) for set_security_req
    nrf_ble_dfu.o(i.advertising_start) refers to memseta.o(.text) for __aeabi_memclr4
    nrf_ble_dfu.o(i.advertising_start) refers to ble_advdata.o(i.ble_advdata_set) for ble_advdata_set
    nrf_ble_dfu.o(i.advertising_start) refers to nrf_ble_dfu.o(.data) for .data
    nrf_ble_dfu.o(i.ble_dfu_init) refers to nrf_ble_dfu.o(i.dfu_pkt_char_add) for dfu_pkt_char_add
    nrf_ble_dfu.o(i.ble_dfu_init) refers to nrf_ble_dfu.o(i.dfu_ctrl_pt_add) for dfu_ctrl_pt_add
    nrf_ble_dfu.o(i.ble_dfu_init) refers to nrf_ble_dfu.o(.data) for .data
    nrf_ble_dfu.o(i.ble_dfu_init) refers to nrf_ble_dfu.o(.constdata) for .constdata
    nrf_ble_dfu.o(i.ble_dfu_transport_close) refers to nrf_ble_dfu.o(i.nrf_delay_us) for nrf_delay_us
    nrf_ble_dfu.o(i.ble_dfu_transport_close) refers to ble_conn_params.o(i.ble_conn_params_stop) for ble_conn_params_stop
    nrf_ble_dfu.o(i.ble_dfu_transport_close) refers to nrf_ble_dfu.o(.data) for .data
    nrf_ble_dfu.o(i.ble_dfu_transport_init) refers to nrf_dfu_mbr.o(i.nrf_dfu_mbr_init_sd) for nrf_dfu_mbr_init_sd
    nrf_ble_dfu.o(i.ble_dfu_transport_init) refers to softdevice_handler.o(i.softdevice_handler_init) for softdevice_handler_init
    nrf_ble_dfu.o(i.ble_dfu_transport_init) refers to main.o(i.app_error_handler_bare) for app_error_handler_bare
    nrf_ble_dfu.o(i.ble_dfu_transport_init) refers to softdevice_handler.o(i.softdevice_enable_get_default_config) for softdevice_enable_get_default_config
    nrf_ble_dfu.o(i.ble_dfu_transport_init) refers to softdevice_handler.o(i.softdevice_enable) for softdevice_enable
    nrf_ble_dfu.o(i.ble_dfu_transport_init) refers to softdevice_handler.o(i.softdevice_ble_evt_handler_set) for softdevice_ble_evt_handler_set
    nrf_ble_dfu.o(i.ble_dfu_transport_init) refers to nrf_ble_dfu.o(i.gap_params_init) for gap_params_init
    nrf_ble_dfu.o(i.ble_dfu_transport_init) refers to nrf_ble_dfu.o(i.ble_dfu_init) for ble_dfu_init
    nrf_ble_dfu.o(i.ble_dfu_transport_init) refers to memseta.o(.text) for __aeabi_memclr4
    nrf_ble_dfu.o(i.ble_dfu_transport_init) refers to ble_conn_params.o(i.ble_conn_params_init) for ble_conn_params_init
    nrf_ble_dfu.o(i.ble_dfu_transport_init) refers to nrf_ble_dfu.o(i.advertising_start) for advertising_start
    nrf_ble_dfu.o(i.ble_dfu_transport_init) refers to nrf_ble_dfu.o(.constdata) for .constdata
    nrf_ble_dfu.o(i.ble_dfu_transport_init) refers to softdevice_handler_appsh.o(i.softdevice_evt_schedule) for softdevice_evt_schedule
    nrf_ble_dfu.o(i.ble_dfu_transport_init) refers to nrf_ble_dfu.o(.bss) for .bss
    nrf_ble_dfu.o(i.ble_dfu_transport_init) refers to nrf_ble_dfu.o(i.ble_evt_dispatch) for ble_evt_dispatch
    nrf_ble_dfu.o(i.ble_dfu_transport_init) refers to nrf_ble_dfu.o(i.conn_params_error_handler) for conn_params_error_handler
    nrf_ble_dfu.o(i.ble_evt_dispatch) refers to ble_conn_params.o(i.ble_conn_params_on_ble_evt) for ble_conn_params_on_ble_evt
    nrf_ble_dfu.o(i.ble_evt_dispatch) refers to nrf_ble_dfu.o(i.on_ble_evt) for on_ble_evt
    nrf_ble_dfu.o(i.conn_params_error_handler) refers to main.o(i.app_error_handler_bare) for app_error_handler_bare
    nrf_ble_dfu.o(i.dfu_ctrl_pt_add) refers to memseta.o(.text) for __aeabi_memclr4
    nrf_ble_dfu.o(i.dfu_pkt_char_add) refers to memseta.o(.text) for __aeabi_memclr4
    nrf_ble_dfu.o(i.nrf_delay_us) refers to system_nrf52.o(.data) for SystemCoreClock
    nrf_ble_dfu.o(i.on_ble_evt) refers to main.o(i.app_error_handler_bare) for app_error_handler_bare
    nrf_ble_dfu.o(i.on_ble_evt) refers to nrf_ble_dfu.o(i.advertising_start) for advertising_start
    nrf_ble_dfu.o(i.on_ble_evt) refers to nrf_ble_dfu.o(i.on_rw_authorize_req) for on_rw_authorize_req
    nrf_ble_dfu.o(i.on_ble_evt) refers to nrf_ble_dfu.o(i.on_ctrl_pt_write) for on_ctrl_pt_write
    nrf_ble_dfu.o(i.on_ble_evt) refers to nrf_ble_dfu.o(i.on_write) for on_write
    nrf_ble_dfu.o(i.on_ble_evt) refers to nrf_ble_dfu.o(.data) for .data
    nrf_ble_dfu.o(i.on_ble_evt) refers to nrf_ble_dfu.o(.bss) for .bss
    nrf_ble_dfu.o(i.on_ctrl_pt_write) refers to dfu_req_handling.o(i.nrf_dfu_req_handler_on_req) for nrf_dfu_req_handler_on_req
    nrf_ble_dfu.o(i.on_ctrl_pt_write) refers to nrf_ble_dfu.o(i.response_crc_cmd_send) for response_crc_cmd_send
    nrf_ble_dfu.o(i.on_ctrl_pt_write) refers to nrf_ble_dfu.o(i.response_send) for response_send
    nrf_ble_dfu.o(i.on_ctrl_pt_write) refers to nrf_ble_dfu.o(i.response_select_object_cmd_send) for response_select_object_cmd_send
    nrf_ble_dfu.o(i.on_ctrl_pt_write) refers to nrf_ble_dfu.o(.data) for .data
    nrf_ble_dfu.o(i.on_rw_authorize_req) refers to ble_srv_common.o(i.ble_srv_is_notification_enabled) for ble_srv_is_notification_enabled
    nrf_ble_dfu.o(i.on_rw_authorize_req) refers to nrf_ble_dfu.o(.data) for .data
    nrf_ble_dfu.o(i.on_write) refers to dfu_req_handling.o(i.nrf_dfu_req_handler_on_req) for nrf_dfu_req_handler_on_req
    nrf_ble_dfu.o(i.on_write) refers to nrf_ble_dfu.o(i.response_crc_cmd_send) for response_crc_cmd_send
    nrf_ble_dfu.o(i.on_write) refers to nrf_ble_dfu.o(.data) for .data
    nrf_ble_dfu.o(i.response_crc_cmd_send) refers to nrf_ble_dfu.o(i.uint32_encode) for uint32_encode
    nrf_ble_dfu.o(i.response_crc_cmd_send) refers to nrf_ble_dfu.o(i.send_hvx) for send_hvx
    nrf_ble_dfu.o(i.response_crc_cmd_send) refers to nrf_ble_dfu.o(.data) for .data
    nrf_ble_dfu.o(i.response_crc_cmd_send) refers to nrf_ble_dfu.o(.bss) for .bss
    nrf_ble_dfu.o(i.response_select_object_cmd_send) refers to nrf_ble_dfu.o(i.uint32_encode) for uint32_encode
    nrf_ble_dfu.o(i.response_select_object_cmd_send) refers to nrf_ble_dfu.o(i.send_hvx) for send_hvx
    nrf_ble_dfu.o(i.response_select_object_cmd_send) refers to nrf_ble_dfu.o(.data) for .data
    nrf_ble_dfu.o(i.response_select_object_cmd_send) refers to nrf_ble_dfu.o(.bss) for .bss
    nrf_ble_dfu.o(i.response_send) refers to nrf_ble_dfu.o(i.send_hvx) for send_hvx
    nrf_ble_dfu.o(i.response_send) refers to nrf_ble_dfu.o(.data) for .data
    nrf_ble_dfu.o(i.response_send) refers to nrf_ble_dfu.o(.bss) for .bss
    nrf_ble_dfu.o(i.send_hvx) refers to nrf_ble_dfu.o(.bss) for .bss
    nrf_ble_dfu.o(dfu_trans) refers to nrf_ble_dfu.o(i.ble_dfu_transport_init) for ble_dfu_transport_init
    nrf_ble_dfu.o(dfu_trans) refers to nrf_ble_dfu.o(i.ble_dfu_transport_close) for ble_dfu_transport_close
    nrf_bootloader.o(i.nrf_bootloader_init) refers to nrf_dfu.o(i.nrf_dfu_init) for nrf_dfu_init
    nrf_bootloader_app_start.o(i.nrf_bootloader_app_start) refers to nrf_dfu_mbr.o(i.nrf_dfu_mbr_init_sd) for nrf_dfu_mbr_init_sd
    nrf_bootloader_app_start.o(i.nrf_bootloader_app_start) refers to nrf_bootloader_app_start.o(.emb_text) for __asm___26_nrf_bootloader_app_start_c_5c9f33f9__nrf_bootloader_app_start_impl
    nrf_dfu.o(i.nrf_delay_us) refers to system_nrf52.o(.data) for SystemCoreClock
    nrf_dfu.o(i.nrf_dfu_enter_check) refers to nrf_dfu_settings.o(i.nrf_dfu_settings_write) for nrf_dfu_settings_write
    nrf_dfu.o(i.nrf_dfu_enter_check) refers to nrf_dfu_settings.o(.bss) for s_dfu_settings
    nrf_dfu.o(i.nrf_dfu_init) refers to nrf_dfu_settings.o(i.nrf_dfu_settings_init) for nrf_dfu_settings_init
    nrf_dfu.o(i.nrf_dfu_init) refers to nrf_dfu_utils.o(i.nrf_dfu_continue) for nrf_dfu_continue
    nrf_dfu.o(i.nrf_dfu_init) refers to nrf_dfu.o(i.nrf_dfu_enter_check) for nrf_dfu_enter_check
    nrf_dfu.o(i.nrf_dfu_init) refers to nrf_dfu_utils.o(i.nrf_dfu_app_is_valid) for nrf_dfu_app_is_valid
    nrf_dfu.o(i.nrf_dfu_init) refers to nrf_bootloader_app_start.o(i.nrf_bootloader_app_start) for nrf_bootloader_app_start
    nrf_dfu.o(i.nrf_dfu_init) refers to app_timer.o(i.app_timer_init) for app_timer_init
    nrf_dfu.o(i.nrf_dfu_init) refers to main.o(i.app_error_handler_bare) for app_error_handler_bare
    nrf_dfu.o(i.nrf_dfu_init) refers to app_scheduler.o(i.app_sched_init) for app_sched_init
    nrf_dfu.o(i.nrf_dfu_init) refers to nrf_dfu.o(i.nrf_delay_us) for nrf_delay_us
    nrf_dfu.o(i.nrf_dfu_init) refers to drv_ext_light.o(i.drv_ext_light_init) for drv_ext_light_init
    nrf_dfu.o(i.nrf_dfu_init) refers to drv_ext_light.o(i.drv_ext_light_rgb_sequence) for drv_ext_light_rgb_sequence
    nrf_dfu.o(i.nrf_dfu_init) refers to nrf_dfu_transport.o(i.nrf_dfu_transports_init) for nrf_dfu_transports_init
    nrf_dfu.o(i.nrf_dfu_init) refers to dfu_req_handling.o(i.nrf_dfu_req_handler_init) for nrf_dfu_req_handler_init
    nrf_dfu.o(i.nrf_dfu_init) refers to app_scheduler.o(i.app_sched_execute) for app_sched_execute
    nrf_dfu.o(i.nrf_dfu_init) refers to app_timer_appsh.o(i.app_timer_evt_schedule) for app_timer_evt_schedule
    nrf_dfu.o(i.nrf_dfu_init) refers to nrf_dfu.o(.bss) for .bss
    nrf_dfu.o(i.nrf_dfu_init) refers to nrf_dfu.o(.constdata) for .constdata
    nrf_dfu.o(i.nrf_dfu_init) refers to nrf_dfu.o(.data) for .data
    nrf_dfu.o(i.nrf_dfu_wait) refers to app_scheduler.o(i.app_sched_execute) for app_sched_execute
    nrf_dfu.o(.constdata) refers to nrf_dfu.o(.data) for my_led_0
    nrf_dfu.o(.constdata) refers to nrf_dfu.o(.data) for my_led_1
    nrf_dfu.o(.constdata) refers to nrf_dfu.o(.constdata) for m_twi_sensors
    nrf_dfu.o(.constdata) refers to nrf_dfu.o(.constdata) for twi_config
    nrf_dfu.o(.constdata) refers to nrf_dfu.o(.constdata) for led_config
    nrf_dfu.o(.constdata) refers to nrf_dfu.o(.constdata) for sx1509_cfg
    nrf_dfu.o(.data) refers to nrf_dfu.o(.bss) for my_led_0_timings
    nrf_dfu.o(.data) refers to nrf_dfu.o(.bss) for my_led_0_timer_data
    nrf_dfu.o(.data) refers to nrf_dfu.o(.bss) for my_led_1_timings
    nrf_dfu.o(.data) refers to nrf_dfu.o(.bss) for my_led_1_timer_data
    nrf_dfu_flash.o(i.fs_evt_handler) refers to nrf_dfu_flash.o(.data) for .data
    nrf_dfu_flash.o(i.nrf_dfu_flash_erase) refers to fstorage.o(i.fs_erase) for fs_erase
    nrf_dfu_flash.o(i.nrf_dfu_flash_erase) refers to nrf_nvmc.o(i.nrf_nvmc_page_erase) for nrf_nvmc_page_erase
    nrf_dfu_flash.o(i.nrf_dfu_flash_erase) refers to nrf_dfu_flash.o(.data) for .data
    nrf_dfu_flash.o(i.nrf_dfu_flash_erase) refers to nrf_dfu_flash.o(fs_data) for fs_data
    nrf_dfu_flash.o(i.nrf_dfu_flash_erase) refers to nrf_dfu_flash.o(.constdata) for .constdata
    nrf_dfu_flash.o(i.nrf_dfu_flash_error_clear) refers to nrf_dfu_flash.o(.data) for .data
    nrf_dfu_flash.o(i.nrf_dfu_flash_init) refers to fstorage.o(i.fs_fake_init) for fs_fake_init
    nrf_dfu_flash.o(i.nrf_dfu_flash_init) refers to softdevice_handler.o(i.softdevice_sys_evt_handler_set) for softdevice_sys_evt_handler_set
    nrf_dfu_flash.o(i.nrf_dfu_flash_init) refers to nrf_dfu_flash.o(.data) for .data
    nrf_dfu_flash.o(i.nrf_dfu_flash_init) refers to fstorage.o(i.fs_sys_event_handler) for fs_sys_event_handler
    nrf_dfu_flash.o(i.nrf_dfu_flash_store) refers to fstorage.o(i.fs_store) for fs_store
    nrf_dfu_flash.o(i.nrf_dfu_flash_store) refers to nrf_nvmc.o(i.nrf_nvmc_write_words) for nrf_nvmc_write_words
    nrf_dfu_flash.o(i.nrf_dfu_flash_store) refers to nrf_dfu_flash.o(.data) for .data
    nrf_dfu_flash.o(i.nrf_dfu_flash_store) refers to nrf_dfu_flash.o(fs_data) for fs_data
    nrf_dfu_flash.o(i.nrf_dfu_flash_wait) refers to nrf_dfu_flash.o(.data) for .data
    nrf_dfu_flash.o(fs_data) refers to nrf_dfu_flash.o(i.fs_evt_handler) for fs_evt_handler
    nrf_dfu_mbr.o(i.nrf_dfu_mbr_compare) refers to nrf_dfu_mbr.o(.constdata) for .constdata
    nrf_dfu_mbr.o(i.nrf_dfu_mbr_copy_sd) refers to nrf_dfu_mbr.o(.constdata) for .constdata
    nrf_dfu_mbr.o(i.nrf_dfu_mbr_init_sd) refers to nrf_dfu_mbr.o(.constdata) for .constdata
    nrf_dfu_mbr.o(i.nrf_dfu_mbr_vector_table_set) refers to nrf_dfu_mbr.o(.constdata) for .constdata
    nrf_dfu_settings.o(i.dfu_settings_write_callback) refers to nrf_dfu_settings.o(.data) for .data
    nrf_dfu_settings.o(i.nrf_dfu_settings_calculate_crc) refers to crc32.o(i.crc32_compute) for crc32_compute
    nrf_dfu_settings.o(i.nrf_dfu_settings_calculate_crc) refers to nrf_dfu_settings.o(.bss) for .bss
    nrf_dfu_settings.o(i.nrf_dfu_settings_init) refers to memcpya.o(.text) for __aeabi_memcpy
    nrf_dfu_settings.o(i.nrf_dfu_settings_init) refers to nrf_dfu_settings.o(i.nrf_dfu_settings_calculate_crc) for nrf_dfu_settings_calculate_crc
    nrf_dfu_settings.o(i.nrf_dfu_settings_init) refers to memseta.o(.text) for __aeabi_memclr4
    nrf_dfu_settings.o(i.nrf_dfu_settings_init) refers to nrf_dfu_settings.o(i.nrf_dfu_settings_write) for nrf_dfu_settings_write
    nrf_dfu_settings.o(i.nrf_dfu_settings_init) refers to nrf_dfu_settings.o(.data) for .data
    nrf_dfu_settings.o(i.nrf_dfu_settings_init) refers to nrf_dfu_settings.o(.ARM.__AT_0x0007F000) for .ARM.__AT_0x0007F000
    nrf_dfu_settings.o(i.nrf_dfu_settings_init) refers to nrf_dfu_settings.o(.bss) for .bss
    nrf_dfu_settings.o(i.nrf_dfu_settings_write) refers to nrf_dfu_flash.o(i.nrf_dfu_flash_erase) for nrf_dfu_flash_erase
    nrf_dfu_settings.o(i.nrf_dfu_settings_write) refers to nrf_dfu_settings.o(i.nrf_dfu_settings_calculate_crc) for nrf_dfu_settings_calculate_crc
    nrf_dfu_settings.o(i.nrf_dfu_settings_write) refers to memcpya.o(.text) for __aeabi_memcpy4
    nrf_dfu_settings.o(i.nrf_dfu_settings_write) refers to nrf_dfu_flash.o(i.nrf_dfu_flash_store) for nrf_dfu_flash_store
    nrf_dfu_settings.o(i.nrf_dfu_settings_write) refers to nrf_dfu_settings.o(.data) for .data
    nrf_dfu_settings.o(i.nrf_dfu_settings_write) refers to nrf_dfu_settings.o(.ARM.__AT_0x0007F000) for .ARM.__AT_0x0007F000
    nrf_dfu_settings.o(i.nrf_dfu_settings_write) refers to nrf_dfu_settings.o(.bss) for .bss
    nrf_dfu_settings.o(i.nrf_dfu_settings_write) refers to nrf_dfu_settings.o(i.dfu_settings_write_callback) for dfu_settings_write_callback
    nrf_dfu_utils.o(i.nrf_dfu_app_continue) refers to nrf_dfu_flash.o(i.nrf_dfu_flash_erase) for nrf_dfu_flash_erase
    nrf_dfu_utils.o(i.nrf_dfu_app_continue) refers to nrf_dfu_flash.o(i.nrf_dfu_flash_store) for nrf_dfu_flash_store
    nrf_dfu_utils.o(i.nrf_dfu_app_continue) refers to nrf_dfu_mbr.o(i.nrf_dfu_mbr_compare) for nrf_dfu_mbr_compare
    nrf_dfu_utils.o(i.nrf_dfu_app_continue) refers to nrf_dfu_settings.o(i.nrf_dfu_settings_write) for nrf_dfu_settings_write
    nrf_dfu_utils.o(i.nrf_dfu_app_continue) refers to crc32.o(i.crc32_compute) for crc32_compute
    nrf_dfu_utils.o(i.nrf_dfu_app_continue) refers to nrf_dfu_utils.o(i.nrf_dfu_invalidate_bank) for nrf_dfu_invalidate_bank
    nrf_dfu_utils.o(i.nrf_dfu_app_continue) refers to nrf_dfu_settings.o(.bss) for s_dfu_settings
    nrf_dfu_utils.o(i.nrf_dfu_app_is_valid) refers to crc32.o(i.crc32_compute) for crc32_compute
    nrf_dfu_utils.o(i.nrf_dfu_app_is_valid) refers to nrf_dfu_settings.o(.bss) for s_dfu_settings
    nrf_dfu_utils.o(i.nrf_dfu_bl_continue) refers to nrf_dfu_mbr.o(i.nrf_dfu_mbr_compare) for nrf_dfu_mbr_compare
    nrf_dfu_utils.o(i.nrf_dfu_bl_continue) refers to nrf_dfu_mbr.o(i.nrf_dfu_mbr_copy_bl) for nrf_dfu_mbr_copy_bl
    nrf_dfu_utils.o(i.nrf_dfu_bl_continue) refers to nrf_dfu_utils.o(i.nrf_dfu_invalidate_bank) for nrf_dfu_invalidate_bank
    nrf_dfu_utils.o(i.nrf_dfu_bl_continue) refers to nrf_dfu_settings.o(i.nrf_dfu_settings_write) for nrf_dfu_settings_write
    nrf_dfu_utils.o(i.nrf_dfu_bl_continue) refers to nrf_dfu_settings.o(.bss) for s_dfu_settings
    nrf_dfu_utils.o(i.nrf_dfu_continue) refers to nrf_dfu_utils.o(i.nrf_dfu_continue_bank) for nrf_dfu_continue_bank
    nrf_dfu_utils.o(i.nrf_dfu_continue) refers to nrf_dfu_settings.o(.bss) for s_dfu_settings
    nrf_dfu_utils.o(i.nrf_dfu_continue_bank) refers to nrf_dfu_utils.o(i.nrf_dfu_sd_continue_impl) for nrf_dfu_sd_continue_impl
    nrf_dfu_utils.o(i.nrf_dfu_continue_bank) refers to nrf_dfu_utils.o(i.nrf_dfu_app_continue) for nrf_dfu_app_continue
    nrf_dfu_utils.o(i.nrf_dfu_continue_bank) refers to nrf_dfu_utils.o(i.nrf_dfu_invalidate_bank) for nrf_dfu_invalidate_bank
    nrf_dfu_utils.o(i.nrf_dfu_continue_bank) refers to nrf_dfu_settings.o(i.nrf_dfu_settings_write) for nrf_dfu_settings_write
    nrf_dfu_utils.o(i.nrf_dfu_continue_bank) refers to nrf_dfu_utils.o(i.nrf_dfu_bl_continue) for nrf_dfu_bl_continue
    nrf_dfu_utils.o(i.nrf_dfu_continue_bank) refers to nrf_dfu_settings.o(.bss) for s_dfu_settings
    nrf_dfu_utils.o(i.nrf_dfu_find_cache) refers to nrf_dfu_settings.o(.bss) for s_dfu_settings
    nrf_dfu_utils.o(i.nrf_dfu_invalidate_bank) refers to nrf_dfu_settings.o(.bss) for s_dfu_settings
    nrf_dfu_utils.o(i.nrf_dfu_sd_continue_impl) refers to nrf_dfu_mbr.o(i.nrf_dfu_mbr_copy_sd) for nrf_dfu_mbr_copy_sd
    nrf_dfu_utils.o(i.nrf_dfu_sd_continue_impl) refers to nrf_dfu_mbr.o(i.nrf_dfu_mbr_compare) for nrf_dfu_mbr_compare
    nrf_dfu_utils.o(i.nrf_dfu_sd_continue_impl) refers to nrf_dfu_settings.o(i.nrf_dfu_settings_write) for nrf_dfu_settings_write
    nrf_dfu_utils.o(i.nrf_dfu_sd_continue_impl) refers to nrf_dfu_settings.o(.bss) for s_dfu_settings
    nrf_drv_rng.o(i.nrf_drv_rng_block_rand) refers to nrf_drv_rng.o(i.nrf_drv_rng_rand) for nrf_drv_rng_rand
    nrf_drv_rng.o(i.nrf_drv_rng_init) refers to nrf_drv_rng.o(.data) for .data
    nrf_drv_rng.o(i.nrf_drv_rng_uninit) refers to nrf_drv_rng.o(.data) for .data
    nrf_nvmc.o(i.nrf_nvmc_write_bytes) refers to nrf_nvmc.o(i.nrf_nvmc_write_byte) for nrf_nvmc_write_byte
    app_fifo.o(i.app_fifo_get) refers to app_fifo.o(i.fifo_get) for fifo_get
    app_fifo.o(i.app_fifo_put) refers to app_fifo.o(i.fifo_put) for fifo_put
    app_fifo.o(i.app_fifo_read) refers to app_fifo.o(i.fifo_get) for fifo_get
    app_fifo.o(i.app_fifo_write) refers to app_fifo.o(i.fifo_put) for fifo_put
    app_scheduler.o(i.app_sched_event_put) refers to app_util_platform.o(i.app_util_critical_region_enter) for app_util_critical_region_enter
    app_scheduler.o(i.app_sched_event_put) refers to app_util_platform.o(i.app_util_critical_region_exit) for app_util_critical_region_exit
    app_scheduler.o(i.app_sched_event_put) refers to memcpya.o(.text) for __aeabi_memcpy
    app_scheduler.o(i.app_sched_event_put) refers to app_scheduler.o(.data) for .data
    app_scheduler.o(i.app_sched_execute) refers to app_scheduler.o(.data) for .data
    app_scheduler.o(i.app_sched_init) refers to app_scheduler.o(.data) for .data
    app_scheduler.o(i.app_sched_queue_space_get) refers to app_scheduler.o(.data) for .data
    app_timer.o(i.RTC1_IRQHandler) refers to app_timer.o(i.timer_timeouts_check) for timer_timeouts_check
    app_timer.o(i.SWI0_EGU0_IRQHandler) refers to app_timer.o(i.timer_list_handler) for timer_list_handler
    app_timer.o(i.app_timer_create) refers to app_timer.o(.data) for .data
    app_timer.o(i.app_timer_init) refers to app_timer.o(i.rtc1_stop) for rtc1_stop
    app_timer.o(i.app_timer_init) refers to app_timer.o(i.NVIC_ClearPendingIRQ) for NVIC_ClearPendingIRQ
    app_timer.o(i.app_timer_init) refers to app_timer.o(i.NVIC_SetPriority) for NVIC_SetPriority
    app_timer.o(i.app_timer_init) refers to app_timer.o(i.NVIC_EnableIRQ) for NVIC_EnableIRQ
    app_timer.o(i.app_timer_init) refers to app_timer.o(.data) for .data
    app_timer.o(i.app_timer_start) refers to app_util_platform.o(i.app_util_critical_region_enter) for app_util_critical_region_enter
    app_timer.o(i.app_timer_start) refers to app_timer.o(i.user_op_alloc) for user_op_alloc
    app_timer.o(i.app_timer_start) refers to app_util_platform.o(i.app_util_critical_region_exit) for app_util_critical_region_exit
    app_timer.o(i.app_timer_start) refers to app_timer.o(i.NVIC_SetPendingIRQ) for NVIC_SetPendingIRQ
    app_timer.o(i.app_timer_start) refers to app_timer.o(.data) for .data
    app_timer.o(i.app_timer_stop) refers to app_timer.o(i.timer_stop_op_schedule) for timer_stop_op_schedule
    app_timer.o(i.app_timer_stop) refers to app_timer.o(.data) for .data
    app_timer.o(i.app_timer_stop_all) refers to app_timer.o(i.timer_stop_op_schedule) for timer_stop_op_schedule
    app_timer.o(i.app_timer_stop_all) refers to app_timer.o(.data) for .data
    app_timer.o(i.compare_reg_update) refers to app_timer.o(i.NVIC_ClearPendingIRQ) for NVIC_ClearPendingIRQ
    app_timer.o(i.compare_reg_update) refers to app_timer.o(i.NVIC_EnableIRQ) for NVIC_EnableIRQ
    app_timer.o(i.compare_reg_update) refers to app_timer.o(i.nrf_delay_us) for nrf_delay_us
    app_timer.o(i.compare_reg_update) refers to app_timer.o(i.NVIC_SetPendingIRQ) for NVIC_SetPendingIRQ
    app_timer.o(i.compare_reg_update) refers to app_timer.o(i.rtc1_stop) for rtc1_stop
    app_timer.o(i.compare_reg_update) refers to app_timer.o(.data) for .data
    app_timer.o(i.elapsed_ticks_acquire) refers to app_timer.o(.data) for .data
    app_timer.o(i.list_deletions_handler) refers to app_timer.o(.data) for .data
    app_timer.o(i.list_insertions_handler) refers to app_timer.o(i.timer_list_insert) for timer_list_insert
    app_timer.o(i.list_insertions_handler) refers to app_timer.o(.data) for .data
    app_timer.o(i.nrf_delay_us) refers to system_nrf52.o(.data) for SystemCoreClock
    app_timer.o(i.rtc1_stop) refers to app_timer.o(i.nrf_delay_us) for nrf_delay_us
    app_timer.o(i.rtc1_stop) refers to app_timer.o(.data) for .data
    app_timer.o(i.timer_list_handler) refers to app_timer.o(i.elapsed_ticks_acquire) for elapsed_ticks_acquire
    app_timer.o(i.timer_list_handler) refers to app_timer.o(i.list_deletions_handler) for list_deletions_handler
    app_timer.o(i.timer_list_handler) refers to app_timer.o(i.list_insertions_handler) for list_insertions_handler
    app_timer.o(i.timer_list_handler) refers to app_timer.o(i.compare_reg_update) for compare_reg_update
    app_timer.o(i.timer_list_handler) refers to app_timer.o(.data) for .data
    app_timer.o(i.timer_list_insert) refers to app_timer.o(.data) for .data
    app_timer.o(i.timer_stop_op_schedule) refers to app_util_platform.o(i.app_util_critical_region_enter) for app_util_critical_region_enter
    app_timer.o(i.timer_stop_op_schedule) refers to app_timer.o(i.user_op_alloc) for user_op_alloc
    app_timer.o(i.timer_stop_op_schedule) refers to app_util_platform.o(i.app_util_critical_region_exit) for app_util_critical_region_exit
    app_timer.o(i.timer_stop_op_schedule) refers to app_timer.o(i.NVIC_SetPendingIRQ) for NVIC_SetPendingIRQ
    app_timer.o(i.timer_stop_op_schedule) refers to app_timer.o(.data) for .data
    app_timer.o(i.timer_timeouts_check) refers to main.o(i.app_error_handler_bare) for app_error_handler_bare
    app_timer.o(i.timer_timeouts_check) refers to app_timer.o(i.NVIC_SetPendingIRQ) for NVIC_SetPendingIRQ
    app_timer.o(i.timer_timeouts_check) refers to app_timer.o(.data) for .data
    app_timer.o(i.user_op_alloc) refers to app_timer.o(.data) for .data
    app_timer_appsh.o(i.app_timer_evt_get) refers to main.o(i.app_error_handler_bare) for app_error_handler_bare
    app_timer_appsh.o(i.app_timer_evt_schedule) refers to app_scheduler.o(i.app_sched_event_put) for app_sched_event_put
    app_timer_appsh.o(i.app_timer_evt_schedule) refers to app_timer_appsh.o(i.app_timer_evt_get) for app_timer_evt_get
    app_util_platform.o(i.app_util_critical_region_enter) refers to app_util_platform.o(.bss) for .bss
    app_util_platform.o(i.app_util_critical_region_exit) refers to app_util_platform.o(.bss) for .bss
    app_util_platform.o(i.app_util_disable_irq) refers to app_util_platform.o(.data) for .data
    app_util_platform.o(i.app_util_enable_irq) refers to app_util_platform.o(.data) for .data
    ecc.o(i.ecc_init) refers to micro_ecc_lib_uECC.c.o(.text.uECC_set_rng) for uECC_set_rng
    ecc.o(i.ecc_init) refers to ecc.o(i.ecc_rng) for ecc_rng
    ecc.o(i.ecc_p256_keypair_gen) refers to ecc.o(i.is_word_aligned) for is_word_aligned
    ecc.o(i.ecc_p256_keypair_gen) refers to micro_ecc_lib_uECC.c.o(.text.uECC_secp256r1) for uECC_secp256r1
    ecc.o(i.ecc_p256_keypair_gen) refers to micro_ecc_lib_uECC.c.o(.text.uECC_make_key) for uECC_make_key
    ecc.o(i.ecc_p256_public_key_compute) refers to ecc.o(i.is_word_aligned) for is_word_aligned
    ecc.o(i.ecc_p256_public_key_compute) refers to micro_ecc_lib_uECC.c.o(.text.uECC_secp256r1) for uECC_secp256r1
    ecc.o(i.ecc_p256_public_key_compute) refers to micro_ecc_lib_uECC.c.o(.text.uECC_compute_public_key) for uECC_compute_public_key
    ecc.o(i.ecc_p256_shared_secret_compute) refers to ecc.o(i.is_word_aligned) for is_word_aligned
    ecc.o(i.ecc_p256_shared_secret_compute) refers to micro_ecc_lib_uECC.c.o(.text.uECC_secp256r1) for uECC_secp256r1
    ecc.o(i.ecc_p256_shared_secret_compute) refers to micro_ecc_lib_uECC.c.o(.text.uECC_shared_secret) for uECC_shared_secret
    ecc.o(i.ecc_p256_sign) refers to ecc.o(i.is_word_aligned) for is_word_aligned
    ecc.o(i.ecc_p256_sign) refers to micro_ecc_lib_uECC.c.o(.text.uECC_secp256r1) for uECC_secp256r1
    ecc.o(i.ecc_p256_sign) refers to micro_ecc_lib_uECC.c.o(.text.uECC_sign) for uECC_sign
    ecc.o(i.ecc_p256_verify) refers to ecc.o(i.is_word_aligned) for is_word_aligned
    ecc.o(i.ecc_p256_verify) refers to micro_ecc_lib_uECC.c.o(.text.uECC_secp256r1) for uECC_secp256r1
    ecc.o(i.ecc_p256_verify) refers to micro_ecc_lib_uECC.c.o(.text.uECC_verify) for uECC_verify
    ecc.o(i.ecc_rng) refers to nrf_drv_rng.o(i.nrf_drv_rng_block_rand) for nrf_drv_rng_block_rand
    fstorage.o(i.fs_erase) refers to fstorage.o(i.check_config) for check_config
    fstorage.o(i.fs_erase) refers to fstorage.o(i.queue_get_next_free) for queue_get_next_free
    fstorage.o(i.fs_erase) refers to fstorage.o(i.queue_start) for queue_start
    fstorage.o(i.fs_erase) refers to fstorage.o(.data) for .data
    fstorage.o(i.fs_fake_init) refers to fstorage.o(.data) for .data
    fstorage.o(i.fs_init) refers to fstorage.o(.data) for .data
    fstorage.o(i.fs_queued_op_count_get) refers to fstorage.o(.bss) for .bss
    fstorage.o(i.fs_store) refers to fstorage.o(i.check_config) for check_config
    fstorage.o(i.fs_store) refers to fstorage.o(i.queue_get_next_free) for queue_get_next_free
    fstorage.o(i.fs_store) refers to fstorage.o(i.queue_start) for queue_start
    fstorage.o(i.fs_store) refers to fstorage.o(.data) for .data
    fstorage.o(i.fs_sys_event_handler) refers to fstorage.o(i.on_operation_success) for on_operation_success
    fstorage.o(i.fs_sys_event_handler) refers to fstorage.o(i.send_event) for send_event
    fstorage.o(i.fs_sys_event_handler) refers to fstorage.o(i.queue_advance) for queue_advance
    fstorage.o(i.fs_sys_event_handler) refers to fstorage.o(i.queue_process) for queue_process
    fstorage.o(i.fs_sys_event_handler) refers to fstorage.o(.bss) for .bss
    fstorage.o(i.fs_sys_event_handler) refers to fstorage.o(.data) for .data
    fstorage.o(i.on_operation_success) refers to fstorage.o(i.send_event) for send_event
    fstorage.o(i.on_operation_success) refers to fstorage.o(i.queue_advance) for queue_advance
    fstorage.o(i.on_operation_success) refers to fstorage.o(.data) for .data
    fstorage.o(i.queue_advance) refers to fstorage.o(.bss) for .bss
    fstorage.o(i.queue_advance) refers to fstorage.o(.data) for .data
    fstorage.o(i.queue_get_next_free) refers to memseta.o(.text) for __aeabi_memclr4
    fstorage.o(i.queue_get_next_free) refers to fstorage.o(.bss) for .bss
    fstorage.o(i.queue_process) refers to fstorage.o(i.send_event) for send_event
    fstorage.o(i.queue_process) refers to fstorage.o(.bss) for .bss
    fstorage.o(i.queue_process) refers to fstorage.o(.data) for .data
    fstorage.o(i.queue_start) refers to fstorage.o(i.queue_process) for queue_process
    fstorage.o(i.queue_start) refers to fstorage.o(.data) for .data
    hci_mem_pool.o(i.hci_mem_pool_open) refers to hci_mem_pool.o(.data) for .data
    hci_mem_pool.o(i.hci_mem_pool_open) refers to hci_mem_pool.o(.bss) for .bss
    hci_mem_pool.o(i.hci_mem_pool_rx_consume) refers to hci_mem_pool.o(.bss) for .bss
    hci_mem_pool.o(i.hci_mem_pool_rx_data_size_set) refers to hci_mem_pool.o(.bss) for .bss
    hci_mem_pool.o(i.hci_mem_pool_rx_extract) refers to hci_mem_pool.o(.bss) for .bss
    hci_mem_pool.o(i.hci_mem_pool_rx_produce) refers to hci_mem_pool.o(.bss) for .bss
    hci_mem_pool.o(i.hci_mem_pool_tx_alloc) refers to hci_mem_pool.o(.data) for .data
    hci_mem_pool.o(i.hci_mem_pool_tx_alloc) refers to hci_mem_pool.o(.bss) for .bss
    hci_mem_pool.o(i.hci_mem_pool_tx_free) refers to hci_mem_pool.o(.data) for .data
    nrf_assert.o(i.assert_nrf_callback) refers to main.o(i.app_error_fault_handler) for app_error_fault_handler
    nrf_crypto.o(i.nrf_crypto_hash_compute) refers to sha256.o(i.sha256_init) for sha256_init
    nrf_crypto.o(i.nrf_crypto_hash_compute) refers to sha256.o(i.sha256_update) for sha256_update
    nrf_crypto.o(i.nrf_crypto_hash_compute) refers to sha256.o(i.sha256_final) for sha256_final
    nrf_crypto.o(i.nrf_crypto_init) refers to ecc.o(i.ecc_init) for ecc_init
    nrf_crypto.o(i.nrf_crypto_public_key_compute) refers to ecc.o(i.ecc_p256_public_key_compute) for ecc_p256_public_key_compute
    nrf_crypto.o(i.nrf_crypto_shared_secret_compute) refers to ecc.o(i.ecc_p256_shared_secret_compute) for ecc_p256_shared_secret_compute
    nrf_crypto.o(i.nrf_crypto_sign) refers to ecc.o(i.ecc_p256_sign) for ecc_p256_sign
    nrf_crypto.o(i.nrf_crypto_verify) refers to ecc.o(i.ecc_p256_verify) for ecc_p256_verify
    sha256.o(i.sha256_final) refers to sha256.o(i.sha256_transform) for sha256_transform
    sha256.o(i.sha256_final) refers to memseta.o(.text) for __aeabi_memclr4
    sha256.o(i.sha256_transform) refers to sha256.o(.constdata) for .constdata
    sha256.o(i.sha256_update) refers to sha256.o(i.sha256_transform) for sha256_transform
    softdevice_handler.o(i.SWI2_EGU2_IRQHandler) refers to main.o(i.app_error_handler_bare) for app_error_handler_bare
    softdevice_handler.o(i.SWI2_EGU2_IRQHandler) refers to softdevice_handler.o(i.intern_softdevice_events_execute) for intern_softdevice_events_execute
    softdevice_handler.o(i.SWI2_EGU2_IRQHandler) refers to softdevice_handler.o(.data) for .data
    softdevice_handler.o(i.intern_softdevice_events_execute) refers to main.o(i.app_error_handler_bare) for app_error_handler_bare
    softdevice_handler.o(i.intern_softdevice_events_execute) refers to softdevice_handler.o(.data) for .data
    softdevice_handler.o(i.sd_nvic_EnableIRQ) refers to softdevice_handler.o(i.__sd_nvic_app_accessible_irq) for __sd_nvic_app_accessible_irq
    softdevice_handler.o(i.sd_nvic_EnableIRQ) refers to app_util_platform.o(.bss) for nrf_nvic_state
    softdevice_handler.o(i.softdevice_ble_evt_handler_set) refers to softdevice_handler.o(.data) for .data
    softdevice_handler.o(i.softdevice_enable_get_default_config) refers to memseta.o(.text) for __aeabi_memclr4
    softdevice_handler.o(i.softdevice_fault_handler) refers to main.o(i.app_error_fault_handler) for app_error_fault_handler
    softdevice_handler.o(i.softdevice_handler_init) refers to softdevice_handler.o(i.sd_nvic_EnableIRQ) for sd_nvic_EnableIRQ
    softdevice_handler.o(i.softdevice_handler_init) refers to softdevice_handler.o(.data) for .data
    softdevice_handler.o(i.softdevice_handler_init) refers to softdevice_handler.o(i.softdevice_fault_handler) for softdevice_fault_handler
    softdevice_handler.o(i.softdevice_handler_is_enabled) refers to softdevice_handler.o(.data) for .data
    softdevice_handler.o(i.softdevice_handler_is_suspended) refers to softdevice_handler.o(.data) for .data
    softdevice_handler.o(i.softdevice_handler_resume) refers to softdevice_handler.o(i.__sd_nvic_app_accessible_irq) for __sd_nvic_app_accessible_irq
    softdevice_handler.o(i.softdevice_handler_resume) refers to main.o(i.app_error_handler_bare) for app_error_handler_bare
    softdevice_handler.o(i.softdevice_handler_resume) refers to softdevice_handler.o(i.sd_nvic_EnableIRQ) for sd_nvic_EnableIRQ
    softdevice_handler.o(i.softdevice_handler_resume) refers to softdevice_handler.o(.data) for .data
    softdevice_handler.o(i.softdevice_handler_sd_disable) refers to softdevice_handler.o(.data) for .data
    softdevice_handler.o(i.softdevice_handler_suspend) refers to softdevice_handler.o(i.__sd_nvic_app_accessible_irq) for __sd_nvic_app_accessible_irq
    softdevice_handler.o(i.softdevice_handler_suspend) refers to main.o(i.app_error_handler_bare) for app_error_handler_bare
    softdevice_handler.o(i.softdevice_handler_suspend) refers to app_util_platform.o(.bss) for nrf_nvic_state
    softdevice_handler.o(i.softdevice_handler_suspend) refers to softdevice_handler.o(.data) for .data
    softdevice_handler.o(i.softdevice_sys_evt_handler_set) refers to softdevice_handler.o(.data) for .data
    softdevice_handler_appsh.o(i.softdevice_evt_get) refers to main.o(i.app_error_handler_bare) for app_error_handler_bare
    softdevice_handler_appsh.o(i.softdevice_evt_get) refers to softdevice_handler.o(i.intern_softdevice_events_execute) for intern_softdevice_events_execute
    softdevice_handler_appsh.o(i.softdevice_evt_get) refers to softdevice_handler_appsh.o(.data) for .data
    softdevice_handler_appsh.o(i.softdevice_evt_schedule) refers to app_scheduler.o(i.app_sched_event_put) for app_sched_event_put
    softdevice_handler_appsh.o(i.softdevice_evt_schedule) refers to softdevice_handler_appsh.o(.data) for .data
    softdevice_handler_appsh.o(i.softdevice_evt_schedule) refers to softdevice_handler_appsh.o(i.softdevice_evt_get) for softdevice_evt_get
    pb_common.o(i.pb_field_iter_find) refers to pb_common.o(i.pb_field_iter_next) for pb_field_iter_next
    pb_common.o(i.pb_field_iter_next) refers to pb_common.o(i.pb_field_iter_begin) for pb_field_iter_begin
    pb_decode.o(i.decode_callback_field) refers to pb_decode.o(i.read_raw_value) for read_raw_value
    pb_decode.o(i.decode_callback_field) refers to pb_decode.o(i.pb_istream_from_buffer) for pb_istream_from_buffer
    pb_decode.o(i.decode_callback_field) refers to pb_decode.o(i.pb_skip_field) for pb_skip_field
    pb_decode.o(i.decode_callback_field) refers to pb_decode.o(i.pb_make_string_substream) for pb_make_string_substream
    pb_decode.o(i.decode_field) refers to pb_decode.o(i.decode_static_field) for decode_static_field
    pb_decode.o(i.decode_field) refers to pb_decode.o(i.decode_callback_field) for decode_callback_field
    pb_decode.o(i.decode_static_field) refers to pb_decode.o(i.pb_make_string_substream) for pb_make_string_substream
    pb_decode.o(i.decode_static_field) refers to memseta.o(.text) for __aeabi_memclr
    pb_decode.o(i.decode_static_field) refers to pb_decode.o(i.pb_message_set_to_defaults) for pb_message_set_to_defaults
    pb_decode.o(i.decode_static_field) refers to pb_decode.o(.constdata) for .constdata
    pb_decode.o(i.iter_from_extension) refers to pb_common.o(i.pb_field_iter_begin) for pb_field_iter_begin
    pb_decode.o(i.pb_dec_bytes) refers to pb_decode.o(i.pb_decode_varint32) for pb_decode_varint32
    pb_decode.o(i.pb_dec_bytes) refers to pb_decode.o(i.pb_read) for pb_read
    pb_decode.o(i.pb_dec_fixed32) refers to pb_decode.o(i.pb_decode_fixed32) for pb_decode_fixed32
    pb_decode.o(i.pb_dec_fixed64) refers to pb_decode.o(i.pb_decode_fixed64) for pb_decode_fixed64
    pb_decode.o(i.pb_dec_string) refers to pb_decode.o(i.pb_decode_varint32) for pb_decode_varint32
    pb_decode.o(i.pb_dec_string) refers to pb_decode.o(i.pb_read) for pb_read
    pb_decode.o(i.pb_dec_submessage) refers to pb_decode.o(i.pb_make_string_substream) for pb_make_string_substream
    pb_decode.o(i.pb_dec_submessage) refers to pb_decode.o(i.pb_decode_noinit) for pb_decode_noinit
    pb_decode.o(i.pb_dec_submessage) refers to pb_decode.o(i.pb_decode) for pb_decode
    pb_decode.o(i.pb_dec_svarint) refers to pb_decode.o(i.pb_decode_svarint) for pb_decode_svarint
    pb_decode.o(i.pb_dec_uvarint) refers to pb_decode.o(i.pb_decode_varint) for pb_decode_varint
    pb_decode.o(i.pb_dec_varint) refers to pb_decode.o(i.pb_decode_varint) for pb_decode_varint
    pb_decode.o(i.pb_decode) refers to pb_decode.o(i.pb_message_set_to_defaults) for pb_message_set_to_defaults
    pb_decode.o(i.pb_decode) refers to pb_decode.o(i.pb_decode_noinit) for pb_decode_noinit
    pb_decode.o(i.pb_decode_delimited) refers to pb_decode.o(i.pb_make_string_substream) for pb_make_string_substream
    pb_decode.o(i.pb_decode_delimited) refers to pb_decode.o(i.pb_decode) for pb_decode
    pb_decode.o(i.pb_decode_fixed32) refers to pb_decode.o(i.pb_read) for pb_read
    pb_decode.o(i.pb_decode_fixed64) refers to pb_decode.o(i.pb_read) for pb_read
    pb_decode.o(i.pb_decode_noinit) refers to pb_common.o(i.pb_field_iter_begin) for pb_field_iter_begin
    pb_decode.o(i.pb_decode_noinit) refers to pb_decode.o(i.pb_decode_tag) for pb_decode_tag
    pb_decode.o(i.pb_decode_noinit) refers to pb_common.o(i.pb_field_iter_find) for pb_field_iter_find
    pb_decode.o(i.pb_decode_noinit) refers to pb_common.o(i.pb_field_iter_next) for pb_field_iter_next
    pb_decode.o(i.pb_decode_noinit) refers to pb_decode.o(i.iter_from_extension) for iter_from_extension
    pb_decode.o(i.pb_decode_noinit) refers to pb_decode.o(i.decode_field) for decode_field
    pb_decode.o(i.pb_decode_noinit) refers to pb_decode.o(i.pb_skip_field) for pb_skip_field
    pb_decode.o(i.pb_decode_svarint) refers to pb_decode.o(i.pb_decode_varint) for pb_decode_varint
    pb_decode.o(i.pb_decode_tag) refers to pb_decode.o(i.pb_decode_varint32) for pb_decode_varint32
    pb_decode.o(i.pb_decode_varint) refers to pb_decode.o(i.pb_readbyte) for pb_readbyte
    pb_decode.o(i.pb_decode_varint) refers to llshl.o(.text) for __aeabi_llsl
    pb_decode.o(i.pb_decode_varint32) refers to pb_decode.o(i.pb_readbyte) for pb_readbyte
    pb_decode.o(i.pb_field_set_to_default) refers to pb_decode.o(i.iter_from_extension) for iter_from_extension
    pb_decode.o(i.pb_field_set_to_default) refers to memcpya.o(.text) for __aeabi_memcpy
    pb_decode.o(i.pb_field_set_to_default) refers to pb_decode.o(i.pb_message_set_to_defaults) for pb_message_set_to_defaults
    pb_decode.o(i.pb_field_set_to_default) refers to memseta.o(.text) for __aeabi_memclr
    pb_decode.o(i.pb_istream_from_buffer) refers to pb_decode.o(i.buf_read) for buf_read
    pb_decode.o(i.pb_make_string_substream) refers to pb_decode.o(i.pb_decode_varint32) for pb_decode_varint32
    pb_decode.o(i.pb_message_set_to_defaults) refers to pb_common.o(i.pb_field_iter_begin) for pb_field_iter_begin
    pb_decode.o(i.pb_message_set_to_defaults) refers to pb_decode.o(i.pb_field_set_to_default) for pb_field_set_to_default
    pb_decode.o(i.pb_message_set_to_defaults) refers to pb_common.o(i.pb_field_iter_next) for pb_field_iter_next
    pb_decode.o(i.pb_read) refers to pb_decode.o(i.buf_read) for buf_read
    pb_decode.o(i.pb_skip_field) refers to pb_decode.o(i.pb_read) for pb_read
    pb_decode.o(i.pb_skip_field) refers to pb_decode.o(i.pb_decode_varint32) for pb_decode_varint32
    pb_decode.o(i.read_raw_value) refers to pb_decode.o(i.pb_read) for pb_read
    pb_decode.o(.constdata) refers to pb_decode.o(i.pb_dec_varint) for pb_dec_varint
    pb_decode.o(.constdata) refers to pb_decode.o(i.pb_dec_uvarint) for pb_dec_uvarint
    pb_decode.o(.constdata) refers to pb_decode.o(i.pb_dec_svarint) for pb_dec_svarint
    pb_decode.o(.constdata) refers to pb_decode.o(i.pb_dec_fixed32) for pb_dec_fixed32
    pb_decode.o(.constdata) refers to pb_decode.o(i.pb_dec_fixed64) for pb_dec_fixed64
    pb_decode.o(.constdata) refers to pb_decode.o(i.pb_dec_bytes) for pb_dec_bytes
    pb_decode.o(.constdata) refers to pb_decode.o(i.pb_dec_string) for pb_dec_string
    pb_decode.o(.constdata) refers to pb_decode.o(i.pb_dec_submessage) for pb_dec_submessage
    rtt_syscalls_keil.o(i._sys_open) refers to strcmp.o(.text) for strcmp
    rtt_syscalls_keil.o(i._sys_open) refers to rtt_syscalls_keil.o(.constdata) for .constdata
    rtt_syscalls_keil.o(i._sys_write) refers to segger_rtt.o(i.SEGGER_RTT_Write) for SEGGER_RTT_Write
    rtt_syscalls_keil.o(i._ttywrch) refers to fputc.o(i.fputc) for fputc
    rtt_syscalls_keil.o(i._ttywrch) refers to fflush.o(.text) for fflush
    rtt_syscalls_keil.o(i._ttywrch) refers to stdout.o(.data) for __stdout
    segger_rtt.o(i.SEGGER_RTT_ConfigDownBuffer) refers to segger_rtt.o(i._DoInit) for _DoInit
    segger_rtt.o(i.SEGGER_RTT_ConfigDownBuffer) refers to segger_rtt.o(.bss) for .bss
    segger_rtt.o(i.SEGGER_RTT_ConfigUpBuffer) refers to segger_rtt.o(i._DoInit) for _DoInit
    segger_rtt.o(i.SEGGER_RTT_ConfigUpBuffer) refers to segger_rtt.o(.bss) for .bss
    segger_rtt.o(i.SEGGER_RTT_GetKey) refers to segger_rtt.o(i.SEGGER_RTT_Read) for SEGGER_RTT_Read
    segger_rtt.o(i.SEGGER_RTT_HasData) refers to segger_rtt.o(.bss) for .bss
    segger_rtt.o(i.SEGGER_RTT_HasKey) refers to segger_rtt.o(i._DoInit) for _DoInit
    segger_rtt.o(i.SEGGER_RTT_HasKey) refers to segger_rtt.o(.bss) for .bss
    segger_rtt.o(i.SEGGER_RTT_Init) refers to segger_rtt.o(i._DoInit) for _DoInit
    segger_rtt.o(i.SEGGER_RTT_Init) refers to segger_rtt.o(.bss) for .bss
    segger_rtt.o(i.SEGGER_RTT_Read) refers to segger_rtt.o(i.SEGGER_RTT_ReadNoLock) for SEGGER_RTT_ReadNoLock
    segger_rtt.o(i.SEGGER_RTT_ReadNoLock) refers to segger_rtt.o(i._DoInit) for _DoInit
    segger_rtt.o(i.SEGGER_RTT_ReadNoLock) refers to memcpya.o(.text) for __aeabi_memcpy
    segger_rtt.o(i.SEGGER_RTT_ReadNoLock) refers to segger_rtt.o(.bss) for .bss
    segger_rtt.o(i.SEGGER_RTT_SetNameDownBuffer) refers to segger_rtt.o(i._DoInit) for _DoInit
    segger_rtt.o(i.SEGGER_RTT_SetNameDownBuffer) refers to segger_rtt.o(.bss) for .bss
    segger_rtt.o(i.SEGGER_RTT_SetNameUpBuffer) refers to segger_rtt.o(i._DoInit) for _DoInit
    segger_rtt.o(i.SEGGER_RTT_SetNameUpBuffer) refers to segger_rtt.o(.bss) for .bss
    segger_rtt.o(i.SEGGER_RTT_SetTerminal) refers to segger_rtt.o(i._DoInit) for _DoInit
    segger_rtt.o(i.SEGGER_RTT_SetTerminal) refers to segger_rtt.o(i._GetAvailWriteSpace) for _GetAvailWriteSpace
    segger_rtt.o(i.SEGGER_RTT_SetTerminal) refers to segger_rtt.o(i._WriteNoCheck) for _WriteNoCheck
    segger_rtt.o(i.SEGGER_RTT_SetTerminal) refers to segger_rtt.o(i._WriteBlocking) for _WriteBlocking
    segger_rtt.o(i.SEGGER_RTT_SetTerminal) refers to segger_rtt.o(.bss) for .bss
    segger_rtt.o(i.SEGGER_RTT_SetTerminal) refers to segger_rtt.o(.data) for .data
    segger_rtt.o(i.SEGGER_RTT_TerminalOut) refers to segger_rtt.o(i._DoInit) for _DoInit
    segger_rtt.o(i.SEGGER_RTT_TerminalOut) refers to strlen.o(.text) for strlen
    segger_rtt.o(i.SEGGER_RTT_TerminalOut) refers to segger_rtt.o(i._GetAvailWriteSpace) for _GetAvailWriteSpace
    segger_rtt.o(i.SEGGER_RTT_TerminalOut) refers to segger_rtt.o(i._PostTerminalSwitch) for _PostTerminalSwitch
    segger_rtt.o(i.SEGGER_RTT_TerminalOut) refers to segger_rtt.o(i._WriteBlocking) for _WriteBlocking
    segger_rtt.o(i.SEGGER_RTT_TerminalOut) refers to segger_rtt.o(.bss) for .bss
    segger_rtt.o(i.SEGGER_RTT_TerminalOut) refers to segger_rtt.o(.data) for .data
    segger_rtt.o(i.SEGGER_RTT_WaitKey) refers to segger_rtt.o(i.SEGGER_RTT_GetKey) for SEGGER_RTT_GetKey
    segger_rtt.o(i.SEGGER_RTT_Write) refers to segger_rtt.o(i._DoInit) for _DoInit
    segger_rtt.o(i.SEGGER_RTT_Write) refers to segger_rtt.o(i.SEGGER_RTT_WriteNoLock) for SEGGER_RTT_WriteNoLock
    segger_rtt.o(i.SEGGER_RTT_Write) refers to segger_rtt.o(.bss) for .bss
    segger_rtt.o(i.SEGGER_RTT_WriteNoLock) refers to segger_rtt.o(i._GetAvailWriteSpace) for _GetAvailWriteSpace
    segger_rtt.o(i.SEGGER_RTT_WriteNoLock) refers to segger_rtt.o(i._WriteNoCheck) for _WriteNoCheck
    segger_rtt.o(i.SEGGER_RTT_WriteNoLock) refers to segger_rtt.o(i._WriteBlocking) for _WriteBlocking
    segger_rtt.o(i.SEGGER_RTT_WriteNoLock) refers to segger_rtt.o(.bss) for .bss
    segger_rtt.o(i.SEGGER_RTT_WriteSkipNoLock) refers to memcpya.o(.text) for __aeabi_memcpy
    segger_rtt.o(i.SEGGER_RTT_WriteSkipNoLock) refers to segger_rtt.o(.bss) for .bss
    segger_rtt.o(i.SEGGER_RTT_WriteString) refers to strlen.o(.text) for strlen
    segger_rtt.o(i.SEGGER_RTT_WriteString) refers to segger_rtt.o(i.SEGGER_RTT_Write) for SEGGER_RTT_Write
    segger_rtt.o(i._DoInit) refers to strcpy.o(.text) for strcpy
    segger_rtt.o(i._DoInit) refers to segger_rtt.o(.bss) for .bss
    segger_rtt.o(i._PostTerminalSwitch) refers to segger_rtt.o(i._WriteBlocking) for _WriteBlocking
    segger_rtt.o(i._PostTerminalSwitch) refers to segger_rtt.o(.data) for .data
    segger_rtt.o(i._WriteBlocking) refers to memcpya.o(.text) for __aeabi_memcpy
    segger_rtt.o(i._WriteNoCheck) refers to memcpya.o(.text) for __aeabi_memcpy
    segger_rtt_printf.o(i.SEGGER_RTT_printf) refers to segger_rtt_printf.o(i.SEGGER_RTT_vprintf) for SEGGER_RTT_vprintf
    segger_rtt_printf.o(i.SEGGER_RTT_vprintf) refers to segger_rtt_printf.o(i._StoreChar) for _StoreChar
    segger_rtt_printf.o(i.SEGGER_RTT_vprintf) refers to segger_rtt_printf.o(i._PrintInt) for _PrintInt
    segger_rtt_printf.o(i.SEGGER_RTT_vprintf) refers to segger_rtt_printf.o(i._PrintUnsigned) for _PrintUnsigned
    segger_rtt_printf.o(i.SEGGER_RTT_vprintf) refers to segger_rtt.o(i.SEGGER_RTT_Write) for SEGGER_RTT_Write
    segger_rtt_printf.o(i._PrintInt) refers to segger_rtt_printf.o(i._StoreChar) for _StoreChar
    segger_rtt_printf.o(i._PrintInt) refers to segger_rtt_printf.o(i._PrintUnsigned) for _PrintUnsigned
    segger_rtt_printf.o(i._PrintUnsigned) refers to segger_rtt_printf.o(i._StoreChar) for _StoreChar
    segger_rtt_printf.o(i._PrintUnsigned) refers to segger_rtt_printf.o(.constdata) for .constdata
    segger_rtt_printf.o(i._StoreChar) refers to segger_rtt.o(i.SEGGER_RTT_Write) for SEGGER_RTT_Write
    arm_startup_nrf52.o(RESET) refers to arm_startup_nrf52.o(STACK) for __initial_sp
    arm_startup_nrf52.o(RESET) refers to arm_startup_nrf52.o(.text) for Reset_Handler
    arm_startup_nrf52.o(RESET) refers to nrf_drv_twi.o(i.SPIM0_SPIS0_TWIM0_TWIS0_SPI0_TWI0_IRQHandler) for SPIM0_SPIS0_TWIM0_TWIS0_SPI0_TWI0_IRQHandler
    arm_startup_nrf52.o(RESET) refers to app_timer.o(i.RTC1_IRQHandler) for RTC1_IRQHandler
    arm_startup_nrf52.o(RESET) refers to app_timer.o(i.SWI0_EGU0_IRQHandler) for SWI0_EGU0_IRQHandler
    arm_startup_nrf52.o(RESET) refers to softdevice_handler.o(i.SWI2_EGU2_IRQHandler) for SWI2_EGU2_IRQHandler
    arm_startup_nrf52.o(.text) refers to system_nrf52.o(i.SystemInit) for SystemInit
    arm_startup_nrf52.o(.text) refers to entry.o(.ARM.Collect$$$$00000000) for __main
    system_nrf52.o(i.SystemCoreClockUpdate) refers to system_nrf52.o(.data) for .data
    system_nrf52.o(i.SystemInit) refers to system_nrf52.o(.data) for .data
    micro_ecc_lib_uECC.c.o(.text.update_V) refers to micro_ecc_lib_uECC.c.o(.text.HMAC_init) for HMAC_init
    micro_ecc_lib_uECC.c.o(.text.update_V) refers to micro_ecc_lib_uECC.c.o(.text.HMAC_update) for HMAC_update
    micro_ecc_lib_uECC.c.o(.text.update_V) refers to micro_ecc_lib_uECC.c.o(.text.HMAC_finish) for HMAC_finish
    micro_ecc_lib_uECC.c.o(.text.omega_mult_secp256k1) refers to micro_ecc_lib_uECC.c.o(.text.uECC_vli_add) for uECC_vli_add
    micro_ecc_lib_uECC.c.o(.text.uECC_set_rng) refers to micro_ecc_lib_uECC.c.o(.bss.g_rng_function) for [Anonymous Symbol]
    micro_ecc_lib_uECC.c.o(.text.uECC_get_rng) refers to micro_ecc_lib_uECC.c.o(.bss.g_rng_function) for [Anonymous Symbol]
    micro_ecc_lib_uECC.c.o(.text.vli_mmod_fast_secp256k1) refers to micro_ecc_lib_uECC.c.o(.text.uECC_vli_clear) for uECC_vli_clear
    micro_ecc_lib_uECC.c.o(.text.vli_mmod_fast_secp256k1) refers to micro_ecc_lib_uECC.c.o(.text.omega_mult_secp256k1) for omega_mult_secp256k1
    micro_ecc_lib_uECC.c.o(.text.vli_mmod_fast_secp256k1) refers to micro_ecc_lib_uECC.c.o(.text.uECC_vli_add) for uECC_vli_add
    micro_ecc_lib_uECC.c.o(.text.vli_mmod_fast_secp256k1) refers to micro_ecc_lib_uECC.c.o(.text.uECC_vli_sub) for uECC_vli_sub
    micro_ecc_lib_uECC.c.o(.text.vli_mmod_fast_secp256k1) refers to micro_ecc_lib_uECC.c.o(.text.uECC_vli_cmp_unsafe) for uECC_vli_cmp_unsafe
    micro_ecc_lib_uECC.c.o(.text.vli_mmod_fast_secp256k1) refers to micro_ecc_lib_uECC.c.o(.rodata.curve_secp256k1) for [Anonymous Symbol]
    micro_ecc_lib_uECC.c.o(.text.bits2int) refers to micro_ecc_lib_uECC.c.o(.text.uECC_vli_clear) for uECC_vli_clear
    micro_ecc_lib_uECC.c.o(.text.bits2int) refers to micro_ecc_lib_uECC.c.o(.text.bcopy) for bcopy
    micro_ecc_lib_uECC.c.o(.text.bits2int) refers to micro_ecc_lib_uECC.c.o(.text.uECC_vli_cmp_unsafe) for uECC_vli_cmp_unsafe
    micro_ecc_lib_uECC.c.o(.text.bits2int) refers to micro_ecc_lib_uECC.c.o(.text.uECC_vli_sub) for uECC_vli_sub
    micro_ecc_lib_uECC.c.o(.text.regularize_k) refers to micro_ecc_lib_uECC.c.o(.text.uECC_vli_add) for uECC_vli_add
    micro_ecc_lib_uECC.c.o(.text.regularize_k) refers to micro_ecc_lib_uECC.c.o(.text.uECC_vli_testBit) for uECC_vli_testBit
    micro_ecc_lib_uECC.c.o(.text.vli_mmod_fast_secp192r1) refers to micro_ecc_lib_uECC.c.o(.text.uECC_vli_set) for uECC_vli_set
    micro_ecc_lib_uECC.c.o(.text.vli_mmod_fast_secp192r1) refers to micro_ecc_lib_uECC.c.o(.text.uECC_vli_add) for uECC_vli_add
    micro_ecc_lib_uECC.c.o(.text.vli_mmod_fast_secp192r1) refers to micro_ecc_lib_uECC.c.o(.text.uECC_vli_sub) for uECC_vli_sub
    micro_ecc_lib_uECC.c.o(.text.vli_mmod_fast_secp192r1) refers to micro_ecc_lib_uECC.c.o(.text.uECC_vli_cmp_unsafe) for uECC_vli_cmp_unsafe
    micro_ecc_lib_uECC.c.o(.text.vli_mmod_fast_secp192r1) refers to micro_ecc_lib_uECC.c.o(.rodata.curve_secp192r1) for [Anonymous Symbol]
    micro_ecc_lib_uECC.c.o(.text.vli_mmod_fast_secp224r1) refers to micro_ecc_lib_uECC.c.o(.text.uECC_vli_set) for uECC_vli_set
    micro_ecc_lib_uECC.c.o(.text.vli_mmod_fast_secp224r1) refers to micro_ecc_lib_uECC.c.o(.text.uECC_vli_add) for uECC_vli_add
    micro_ecc_lib_uECC.c.o(.text.vli_mmod_fast_secp224r1) refers to micro_ecc_lib_uECC.c.o(.text.uECC_vli_sub) for uECC_vli_sub
    micro_ecc_lib_uECC.c.o(.text.vli_mmod_fast_secp224r1) refers to micro_ecc_lib_uECC.c.o(.text.uECC_vli_cmp_unsafe) for uECC_vli_cmp_unsafe
    micro_ecc_lib_uECC.c.o(.text.vli_mmod_fast_secp224r1) refers to micro_ecc_lib_uECC.c.o(.rodata.curve_secp224r1) for [Anonymous Symbol]
    micro_ecc_lib_uECC.c.o(.text.vli_mmod_fast_secp256r1) refers to micro_ecc_lib_uECC.c.o(.text.uECC_vli_set) for uECC_vli_set
    micro_ecc_lib_uECC.c.o(.text.vli_mmod_fast_secp256r1) refers to micro_ecc_lib_uECC.c.o(.text.uECC_vli_add) for uECC_vli_add
    micro_ecc_lib_uECC.c.o(.text.vli_mmod_fast_secp256r1) refers to micro_ecc_lib_uECC.c.o(.text.uECC_vli_sub) for uECC_vli_sub
    micro_ecc_lib_uECC.c.o(.text.vli_mmod_fast_secp256r1) refers to micro_ecc_lib_uECC.c.o(.text.uECC_vli_cmp_unsafe) for uECC_vli_cmp_unsafe
    micro_ecc_lib_uECC.c.o(.text.vli_mmod_fast_secp256r1) refers to micro_ecc_lib_uECC.c.o(.rodata.curve_secp256r1) for [Anonymous Symbol]
    micro_ecc_lib_uECC.c.o(.text.uECC_vli_cmp) refers to micro_ecc_lib_uECC.c.o(.text.uECC_vli_sub) for uECC_vli_sub
    micro_ecc_lib_uECC.c.o(.text.uECC_vli_cmp) refers to micro_ecc_lib_uECC.c.o(.text.uECC_vli_isZero) for uECC_vli_isZero
    micro_ecc_lib_uECC.c.o(.text.vli_modInv_update) refers to micro_ecc_lib_uECC.c.o(.text.uECC_vli_add) for uECC_vli_add
    micro_ecc_lib_uECC.c.o(.text.vli_modInv_update) refers to micro_ecc_lib_uECC.c.o(.text.uECC_vli_rshift1) for uECC_vli_rshift1
    micro_ecc_lib_uECC.c.o(.text.omega_mult_secp160r1) refers to micro_ecc_lib_uECC.c.o(.text.uECC_vli_set) for uECC_vli_set
    micro_ecc_lib_uECC.c.o(.text.omega_mult_secp160r1) refers to micro_ecc_lib_uECC.c.o(.text.uECC_vli_rshift1) for uECC_vli_rshift1
    micro_ecc_lib_uECC.c.o(.text.omega_mult_secp160r1) refers to micro_ecc_lib_uECC.c.o(.text.uECC_vli_add) for uECC_vli_add
    micro_ecc_lib_uECC.c.o(.text.vli_mmod_fast_secp160r1) refers to micro_ecc_lib_uECC.c.o(.text.uECC_vli_clear) for uECC_vli_clear
    micro_ecc_lib_uECC.c.o(.text.vli_mmod_fast_secp160r1) refers to micro_ecc_lib_uECC.c.o(.text.omega_mult_secp160r1) for omega_mult_secp160r1
    micro_ecc_lib_uECC.c.o(.text.vli_mmod_fast_secp160r1) refers to micro_ecc_lib_uECC.c.o(.text.uECC_vli_add) for uECC_vli_add
    micro_ecc_lib_uECC.c.o(.text.vli_mmod_fast_secp160r1) refers to micro_ecc_lib_uECC.c.o(.text.uECC_vli_sub) for uECC_vli_sub
    micro_ecc_lib_uECC.c.o(.text.vli_mmod_fast_secp160r1) refers to micro_ecc_lib_uECC.c.o(.text.uECC_vli_cmp_unsafe) for uECC_vli_cmp_unsafe
    micro_ecc_lib_uECC.c.o(.text.vli_mmod_fast_secp160r1) refers to micro_ecc_lib_uECC.c.o(.rodata.curve_secp160r1) for [Anonymous Symbol]
    micro_ecc_lib_uECC.c.o(.text.uECC_vli_modAdd) refers to micro_ecc_lib_uECC.c.o(.text.uECC_vli_add) for uECC_vli_add
    micro_ecc_lib_uECC.c.o(.text.uECC_vli_modAdd) refers to micro_ecc_lib_uECC.c.o(.text.uECC_vli_cmp_unsafe) for uECC_vli_cmp_unsafe
    micro_ecc_lib_uECC.c.o(.text.uECC_vli_modAdd) refers to micro_ecc_lib_uECC.c.o(.text.uECC_vli_sub) for uECC_vli_sub
    micro_ecc_lib_uECC.c.o(.text.uECC_vli_modSub) refers to micro_ecc_lib_uECC.c.o(.text.uECC_vli_sub) for uECC_vli_sub
    micro_ecc_lib_uECC.c.o(.text.uECC_vli_modSub) refers to micro_ecc_lib_uECC.c.o(.text.uECC_vli_add) for uECC_vli_add
    micro_ecc_lib_uECC.c.o(.text.uECC_vli_mmod) refers to micro_ecc_lib_uECC.c.o(.text.uECC_vli_numBits) for uECC_vli_numBits
    micro_ecc_lib_uECC.c.o(.text.uECC_vli_mmod) refers to micro_ecc_lib_uECC.c.o(.text.uECC_vli_clear) for uECC_vli_clear
    micro_ecc_lib_uECC.c.o(.text.uECC_vli_mmod) refers to micro_ecc_lib_uECC.c.o(.text.uECC_vli_set) for uECC_vli_set
    micro_ecc_lib_uECC.c.o(.text.uECC_vli_mmod) refers to micro_ecc_lib_uECC.c.o(.text.uECC_vli_rshift1) for uECC_vli_rshift1
    micro_ecc_lib_uECC.c.o(.text.uECC_vli_modMult) refers to micro_ecc_lib_uECC.c.o(.text.uECC_vli_mult) for uECC_vli_mult
    micro_ecc_lib_uECC.c.o(.text.uECC_vli_modMult) refers to micro_ecc_lib_uECC.c.o(.text.uECC_vli_mmod) for uECC_vli_mmod
    micro_ecc_lib_uECC.c.o(.text.uECC_vli_modMult_fast) refers to micro_ecc_lib_uECC.c.o(.text.uECC_vli_mult) for uECC_vli_mult
    micro_ecc_lib_uECC.c.o(.text.uECC_vli_modSquare) refers to micro_ecc_lib_uECC.c.o(.text.uECC_vli_square) for uECC_vli_square
    micro_ecc_lib_uECC.c.o(.text.uECC_vli_modSquare) refers to micro_ecc_lib_uECC.c.o(.text.uECC_vli_mmod) for uECC_vli_mmod
    micro_ecc_lib_uECC.c.o(.text.uECC_vli_modSquare_fast) refers to micro_ecc_lib_uECC.c.o(.text.uECC_vli_square) for uECC_vli_square
    micro_ecc_lib_uECC.c.o(.text.x_side_default) refers to memseta.o(.text) for memset
    micro_ecc_lib_uECC.c.o(.text.x_side_default) refers to micro_ecc_lib_uECC.c.o(.text.uECC_vli_modSquare_fast) for uECC_vli_modSquare_fast
    micro_ecc_lib_uECC.c.o(.text.x_side_default) refers to micro_ecc_lib_uECC.c.o(.text.uECC_vli_modSub) for uECC_vli_modSub
    micro_ecc_lib_uECC.c.o(.text.x_side_default) refers to micro_ecc_lib_uECC.c.o(.text.uECC_vli_modMult_fast) for uECC_vli_modMult_fast
    micro_ecc_lib_uECC.c.o(.text.x_side_default) refers to micro_ecc_lib_uECC.c.o(.text.uECC_vli_modAdd) for uECC_vli_modAdd
    micro_ecc_lib_uECC.c.o(.text.double_jacobian_default) refers to micro_ecc_lib_uECC.c.o(.text.uECC_vli_isZero) for uECC_vli_isZero
    micro_ecc_lib_uECC.c.o(.text.double_jacobian_default) refers to micro_ecc_lib_uECC.c.o(.text.uECC_vli_modSquare_fast) for uECC_vli_modSquare_fast
    micro_ecc_lib_uECC.c.o(.text.double_jacobian_default) refers to micro_ecc_lib_uECC.c.o(.text.uECC_vli_modMult_fast) for uECC_vli_modMult_fast
    micro_ecc_lib_uECC.c.o(.text.double_jacobian_default) refers to micro_ecc_lib_uECC.c.o(.text.uECC_vli_modAdd) for uECC_vli_modAdd
    micro_ecc_lib_uECC.c.o(.text.double_jacobian_default) refers to micro_ecc_lib_uECC.c.o(.text.uECC_vli_modSub) for uECC_vli_modSub
    micro_ecc_lib_uECC.c.o(.text.double_jacobian_default) refers to micro_ecc_lib_uECC.c.o(.text.uECC_vli_add) for uECC_vli_add
    micro_ecc_lib_uECC.c.o(.text.double_jacobian_default) refers to micro_ecc_lib_uECC.c.o(.text.uECC_vli_rshift1) for uECC_vli_rshift1
    micro_ecc_lib_uECC.c.o(.text.double_jacobian_default) refers to micro_ecc_lib_uECC.c.o(.text.uECC_vli_set) for uECC_vli_set
    micro_ecc_lib_uECC.c.o(.text.x_side_secp256k1) refers to micro_ecc_lib_uECC.c.o(.text.uECC_vli_modSquare_fast) for uECC_vli_modSquare_fast
    micro_ecc_lib_uECC.c.o(.text.x_side_secp256k1) refers to micro_ecc_lib_uECC.c.o(.text.uECC_vli_modMult_fast) for uECC_vli_modMult_fast
    micro_ecc_lib_uECC.c.o(.text.x_side_secp256k1) refers to micro_ecc_lib_uECC.c.o(.text.uECC_vli_modAdd) for uECC_vli_modAdd
    micro_ecc_lib_uECC.c.o(.text.double_jacobian_secp256k1) refers to micro_ecc_lib_uECC.c.o(.text.uECC_vli_isZero) for uECC_vli_isZero
    micro_ecc_lib_uECC.c.o(.text.double_jacobian_secp256k1) refers to micro_ecc_lib_uECC.c.o(.text.uECC_vli_modSquare_fast) for uECC_vli_modSquare_fast
    micro_ecc_lib_uECC.c.o(.text.double_jacobian_secp256k1) refers to micro_ecc_lib_uECC.c.o(.text.uECC_vli_modMult_fast) for uECC_vli_modMult_fast
    micro_ecc_lib_uECC.c.o(.text.double_jacobian_secp256k1) refers to micro_ecc_lib_uECC.c.o(.text.uECC_vli_modAdd) for uECC_vli_modAdd
    micro_ecc_lib_uECC.c.o(.text.double_jacobian_secp256k1) refers to micro_ecc_lib_uECC.c.o(.text.uECC_vli_add) for uECC_vli_add
    micro_ecc_lib_uECC.c.o(.text.double_jacobian_secp256k1) refers to micro_ecc_lib_uECC.c.o(.text.uECC_vli_rshift1) for uECC_vli_rshift1
    micro_ecc_lib_uECC.c.o(.text.double_jacobian_secp256k1) refers to micro_ecc_lib_uECC.c.o(.text.uECC_vli_modSub) for uECC_vli_modSub
    micro_ecc_lib_uECC.c.o(.text.XYcZ_addC) refers to micro_ecc_lib_uECC.c.o(.text.uECC_vli_modSub) for uECC_vli_modSub
    micro_ecc_lib_uECC.c.o(.text.XYcZ_addC) refers to micro_ecc_lib_uECC.c.o(.text.uECC_vli_modSquare_fast) for uECC_vli_modSquare_fast
    micro_ecc_lib_uECC.c.o(.text.XYcZ_addC) refers to micro_ecc_lib_uECC.c.o(.text.uECC_vli_modMult_fast) for uECC_vli_modMult_fast
    micro_ecc_lib_uECC.c.o(.text.XYcZ_addC) refers to micro_ecc_lib_uECC.c.o(.text.uECC_vli_modAdd) for uECC_vli_modAdd
    micro_ecc_lib_uECC.c.o(.text.XYcZ_addC) refers to micro_ecc_lib_uECC.c.o(.text.uECC_vli_set) for uECC_vli_set
    micro_ecc_lib_uECC.c.o(.text.XYcZ_add) refers to micro_ecc_lib_uECC.c.o(.text.uECC_vli_modSub) for uECC_vli_modSub
    micro_ecc_lib_uECC.c.o(.text.XYcZ_add) refers to micro_ecc_lib_uECC.c.o(.text.uECC_vli_modSquare_fast) for uECC_vli_modSquare_fast
    micro_ecc_lib_uECC.c.o(.text.XYcZ_add) refers to micro_ecc_lib_uECC.c.o(.text.uECC_vli_modMult_fast) for uECC_vli_modMult_fast
    micro_ecc_lib_uECC.c.o(.text.XYcZ_add) refers to micro_ecc_lib_uECC.c.o(.text.uECC_vli_set) for uECC_vli_set
    micro_ecc_lib_uECC.c.o(.text.apply_z) refers to micro_ecc_lib_uECC.c.o(.text.uECC_vli_modSquare_fast) for uECC_vli_modSquare_fast
    micro_ecc_lib_uECC.c.o(.text.apply_z) refers to micro_ecc_lib_uECC.c.o(.text.uECC_vli_modMult_fast) for uECC_vli_modMult_fast
    micro_ecc_lib_uECC.c.o(.text.uECC_vli_modInv) refers to micro_ecc_lib_uECC.c.o(.text.uECC_vli_isZero) for uECC_vli_isZero
    micro_ecc_lib_uECC.c.o(.text.uECC_vli_modInv) refers to micro_ecc_lib_uECC.c.o(.text.uECC_vli_clear) for uECC_vli_clear
    micro_ecc_lib_uECC.c.o(.text.uECC_vli_modInv) refers to micro_ecc_lib_uECC.c.o(.text.uECC_vli_set) for uECC_vli_set
    micro_ecc_lib_uECC.c.o(.text.uECC_vli_modInv) refers to micro_ecc_lib_uECC.c.o(.text.uECC_vli_cmp_unsafe) for uECC_vli_cmp_unsafe
    micro_ecc_lib_uECC.c.o(.text.uECC_vli_modInv) refers to micro_ecc_lib_uECC.c.o(.text.uECC_vli_rshift1) for uECC_vli_rshift1
    micro_ecc_lib_uECC.c.o(.text.uECC_vli_modInv) refers to micro_ecc_lib_uECC.c.o(.text.uECC_vli_sub) for uECC_vli_sub
    micro_ecc_lib_uECC.c.o(.text.uECC_vli_modInv) refers to micro_ecc_lib_uECC.c.o(.text.uECC_vli_add) for uECC_vli_add
    micro_ecc_lib_uECC.c.o(.text.uECC_vli_modInv) refers to micro_ecc_lib_uECC.c.o(.text.vli_modInv_update) for vli_modInv_update
    micro_ecc_lib_uECC.c.o(.text.EccPoint_mult) refers to micro_ecc_lib_uECC.c.o(.text.uECC_vli_set) for uECC_vli_set
    micro_ecc_lib_uECC.c.o(.text.EccPoint_mult) refers to micro_ecc_lib_uECC.c.o(.text.uECC_vli_clear) for uECC_vli_clear
    micro_ecc_lib_uECC.c.o(.text.EccPoint_mult) refers to micro_ecc_lib_uECC.c.o(.text.apply_z) for apply_z
    micro_ecc_lib_uECC.c.o(.text.EccPoint_mult) refers to micro_ecc_lib_uECC.c.o(.text.uECC_vli_testBit) for uECC_vli_testBit
    micro_ecc_lib_uECC.c.o(.text.EccPoint_mult) refers to micro_ecc_lib_uECC.c.o(.text.XYcZ_addC) for XYcZ_addC
    micro_ecc_lib_uECC.c.o(.text.EccPoint_mult) refers to micro_ecc_lib_uECC.c.o(.text.XYcZ_add) for XYcZ_add
    micro_ecc_lib_uECC.c.o(.text.EccPoint_mult) refers to micro_ecc_lib_uECC.c.o(.text.uECC_vli_modSub) for uECC_vli_modSub
    micro_ecc_lib_uECC.c.o(.text.EccPoint_mult) refers to micro_ecc_lib_uECC.c.o(.text.uECC_vli_modMult_fast) for uECC_vli_modMult_fast
    micro_ecc_lib_uECC.c.o(.text.EccPoint_mult) refers to micro_ecc_lib_uECC.c.o(.text.uECC_vli_modInv) for uECC_vli_modInv
    micro_ecc_lib_uECC.c.o(.text.EccPoint_compute_public_key) refers to micro_ecc_lib_uECC.c.o(.text.regularize_k) for regularize_k
    micro_ecc_lib_uECC.c.o(.text.EccPoint_compute_public_key) refers to micro_ecc_lib_uECC.c.o(.text.EccPoint_mult) for EccPoint_mult
    micro_ecc_lib_uECC.c.o(.text.EccPoint_compute_public_key) refers to micro_ecc_lib_uECC.c.o(.text.uECC_vli_isZero) for uECC_vli_isZero
    micro_ecc_lib_uECC.c.o(.text.uECC_secp160r1) refers to micro_ecc_lib_uECC.c.o(.rodata.curve_secp160r1) for [Anonymous Symbol]
    micro_ecc_lib_uECC.c.o(.text.uECC_secp192r1) refers to micro_ecc_lib_uECC.c.o(.rodata.curve_secp192r1) for [Anonymous Symbol]
    micro_ecc_lib_uECC.c.o(.text.uECC_secp224r1) refers to micro_ecc_lib_uECC.c.o(.rodata.curve_secp224r1) for [Anonymous Symbol]
    micro_ecc_lib_uECC.c.o(.text.uECC_secp256r1) refers to micro_ecc_lib_uECC.c.o(.rodata.curve_secp256r1) for [Anonymous Symbol]
    micro_ecc_lib_uECC.c.o(.text.uECC_secp256k1) refers to micro_ecc_lib_uECC.c.o(.rodata.curve_secp256k1) for [Anonymous Symbol]
    micro_ecc_lib_uECC.c.o(.text.uECC_vli_bytesToNative) refers to micro_ecc_lib_uECC.c.o(.text.uECC_vli_clear) for uECC_vli_clear
    micro_ecc_lib_uECC.c.o(.text.uECC_generate_random_int) refers to micro_ecc_lib_uECC.c.o(.text.uECC_vli_numBits) for uECC_vli_numBits
    micro_ecc_lib_uECC.c.o(.text.uECC_generate_random_int) refers to micro_ecc_lib_uECC.c.o(.text.uECC_vli_isZero) for uECC_vli_isZero
    micro_ecc_lib_uECC.c.o(.text.uECC_generate_random_int) refers to micro_ecc_lib_uECC.c.o(.text.uECC_vli_cmp) for uECC_vli_cmp
    micro_ecc_lib_uECC.c.o(.text.uECC_generate_random_int) refers to micro_ecc_lib_uECC.c.o(.bss.g_rng_function) for [Anonymous Symbol]
    micro_ecc_lib_uECC.c.o(.text.uECC_sign_with_k) refers to micro_ecc_lib_uECC.c.o(.text.uECC_vli_isZero) for uECC_vli_isZero
    micro_ecc_lib_uECC.c.o(.text.uECC_sign_with_k) refers to micro_ecc_lib_uECC.c.o(.text.uECC_vli_cmp) for uECC_vli_cmp
    micro_ecc_lib_uECC.c.o(.text.uECC_sign_with_k) refers to micro_ecc_lib_uECC.c.o(.text.regularize_k) for regularize_k
    micro_ecc_lib_uECC.c.o(.text.uECC_sign_with_k) refers to micro_ecc_lib_uECC.c.o(.text.EccPoint_mult) for EccPoint_mult
    micro_ecc_lib_uECC.c.o(.text.uECC_sign_with_k) refers to micro_ecc_lib_uECC.c.o(.text.uECC_vli_clear) for uECC_vli_clear
    micro_ecc_lib_uECC.c.o(.text.uECC_sign_with_k) refers to micro_ecc_lib_uECC.c.o(.text.uECC_generate_random_int) for uECC_generate_random_int
    micro_ecc_lib_uECC.c.o(.text.uECC_sign_with_k) refers to micro_ecc_lib_uECC.c.o(.text.uECC_vli_modMult) for uECC_vli_modMult
    micro_ecc_lib_uECC.c.o(.text.uECC_sign_with_k) refers to micro_ecc_lib_uECC.c.o(.text.uECC_vli_modInv) for uECC_vli_modInv
    micro_ecc_lib_uECC.c.o(.text.uECC_sign_with_k) refers to micro_ecc_lib_uECC.c.o(.text.bcopy) for bcopy
    micro_ecc_lib_uECC.c.o(.text.uECC_sign_with_k) refers to micro_ecc_lib_uECC.c.o(.text.uECC_vli_set) for uECC_vli_set
    micro_ecc_lib_uECC.c.o(.text.uECC_sign_with_k) refers to micro_ecc_lib_uECC.c.o(.text.bits2int) for bits2int
    micro_ecc_lib_uECC.c.o(.text.uECC_sign_with_k) refers to micro_ecc_lib_uECC.c.o(.text.uECC_vli_modAdd) for uECC_vli_modAdd
    micro_ecc_lib_uECC.c.o(.text.uECC_sign_with_k) refers to micro_ecc_lib_uECC.c.o(.text.uECC_vli_numBits) for uECC_vli_numBits
    micro_ecc_lib_uECC.c.o(.text.uECC_sign_with_k) refers to micro_ecc_lib_uECC.c.o(.bss.g_rng_function) for [Anonymous Symbol]
    micro_ecc_lib_uECC.c.o(.text.uECC_make_key) refers to micro_ecc_lib_uECC.c.o(.text.uECC_generate_random_int) for uECC_generate_random_int
    micro_ecc_lib_uECC.c.o(.text.uECC_make_key) refers to micro_ecc_lib_uECC.c.o(.text.EccPoint_compute_public_key) for EccPoint_compute_public_key
    micro_ecc_lib_uECC.c.o(.text.uECC_shared_secret) refers to micro_ecc_lib_uECC.c.o(.text.bcopy) for bcopy
    micro_ecc_lib_uECC.c.o(.text.uECC_shared_secret) refers to micro_ecc_lib_uECC.c.o(.text.regularize_k) for regularize_k
    micro_ecc_lib_uECC.c.o(.text.uECC_shared_secret) refers to micro_ecc_lib_uECC.c.o(.text.uECC_generate_random_int) for uECC_generate_random_int
    micro_ecc_lib_uECC.c.o(.text.uECC_shared_secret) refers to micro_ecc_lib_uECC.c.o(.text.EccPoint_mult) for EccPoint_mult
    micro_ecc_lib_uECC.c.o(.text.uECC_shared_secret) refers to micro_ecc_lib_uECC.c.o(.text.uECC_vli_isZero) for uECC_vli_isZero
    micro_ecc_lib_uECC.c.o(.text.uECC_shared_secret) refers to micro_ecc_lib_uECC.c.o(.bss.g_rng_function) for [Anonymous Symbol]
    micro_ecc_lib_uECC.c.o(.text.uECC_valid_point) refers to micro_ecc_lib_uECC.c.o(.text.uECC_vli_isZero) for uECC_vli_isZero
    micro_ecc_lib_uECC.c.o(.text.uECC_valid_point) refers to micro_ecc_lib_uECC.c.o(.text.uECC_vli_cmp_unsafe) for uECC_vli_cmp_unsafe
    micro_ecc_lib_uECC.c.o(.text.uECC_valid_point) refers to micro_ecc_lib_uECC.c.o(.text.uECC_vli_modSquare_fast) for uECC_vli_modSquare_fast
    micro_ecc_lib_uECC.c.o(.text.uECC_valid_point) refers to micro_ecc_lib_uECC.c.o(.text.uECC_vli_equal) for uECC_vli_equal
    micro_ecc_lib_uECC.c.o(.text.uECC_valid_public_key) refers to micro_ecc_lib_uECC.c.o(.text.uECC_valid_point) for uECC_valid_point
    micro_ecc_lib_uECC.c.o(.text.uECC_compute_public_key) refers to micro_ecc_lib_uECC.c.o(.text.uECC_vli_isZero) for uECC_vli_isZero
    micro_ecc_lib_uECC.c.o(.text.uECC_compute_public_key) refers to micro_ecc_lib_uECC.c.o(.text.uECC_vli_cmp) for uECC_vli_cmp
    micro_ecc_lib_uECC.c.o(.text.uECC_compute_public_key) refers to micro_ecc_lib_uECC.c.o(.text.EccPoint_compute_public_key) for EccPoint_compute_public_key
    micro_ecc_lib_uECC.c.o(.text.uECC_sign) refers to micro_ecc_lib_uECC.c.o(.text.uECC_generate_random_int) for uECC_generate_random_int
    micro_ecc_lib_uECC.c.o(.text.uECC_sign) refers to micro_ecc_lib_uECC.c.o(.text.uECC_sign_with_k) for uECC_sign_with_k
    micro_ecc_lib_uECC.c.o(.text.uECC_sign_deterministic) refers to micro_ecc_lib_uECC.c.o(.text.HMAC_init) for HMAC_init
    micro_ecc_lib_uECC.c.o(.text.uECC_sign_deterministic) refers to micro_ecc_lib_uECC.c.o(.text.HMAC_update) for HMAC_update
    micro_ecc_lib_uECC.c.o(.text.uECC_sign_deterministic) refers to micro_ecc_lib_uECC.c.o(.text.HMAC_finish) for HMAC_finish
    micro_ecc_lib_uECC.c.o(.text.uECC_sign_deterministic) refers to micro_ecc_lib_uECC.c.o(.text.update_V) for update_V
    micro_ecc_lib_uECC.c.o(.text.uECC_sign_deterministic) refers to micro_ecc_lib_uECC.c.o(.text.uECC_sign_with_k) for uECC_sign_with_k
    micro_ecc_lib_uECC.c.o(.text.uECC_verify) refers to micro_ecc_lib_uECC.c.o(.text.bcopy) for bcopy
    micro_ecc_lib_uECC.c.o(.text.uECC_verify) refers to micro_ecc_lib_uECC.c.o(.text.uECC_vli_isZero) for uECC_vli_isZero
    micro_ecc_lib_uECC.c.o(.text.uECC_verify) refers to micro_ecc_lib_uECC.c.o(.text.uECC_vli_cmp_unsafe) for uECC_vli_cmp_unsafe
    micro_ecc_lib_uECC.c.o(.text.uECC_verify) refers to micro_ecc_lib_uECC.c.o(.text.uECC_vli_modInv) for uECC_vli_modInv
    micro_ecc_lib_uECC.c.o(.text.uECC_verify) refers to micro_ecc_lib_uECC.c.o(.text.bits2int) for bits2int
    micro_ecc_lib_uECC.c.o(.text.uECC_verify) refers to micro_ecc_lib_uECC.c.o(.text.uECC_vli_modMult) for uECC_vli_modMult
    micro_ecc_lib_uECC.c.o(.text.uECC_verify) refers to micro_ecc_lib_uECC.c.o(.text.uECC_vli_set) for uECC_vli_set
    micro_ecc_lib_uECC.c.o(.text.uECC_verify) refers to micro_ecc_lib_uECC.c.o(.text.uECC_vli_modSub) for uECC_vli_modSub
    micro_ecc_lib_uECC.c.o(.text.uECC_verify) refers to micro_ecc_lib_uECC.c.o(.text.XYcZ_add) for XYcZ_add
    micro_ecc_lib_uECC.c.o(.text.uECC_verify) refers to micro_ecc_lib_uECC.c.o(.text.apply_z) for apply_z
    micro_ecc_lib_uECC.c.o(.text.uECC_verify) refers to micro_ecc_lib_uECC.c.o(.text.uECC_vli_numBits) for uECC_vli_numBits
    micro_ecc_lib_uECC.c.o(.text.uECC_verify) refers to micro_ecc_lib_uECC.c.o(.text.uECC_vli_testBit) for uECC_vli_testBit
    micro_ecc_lib_uECC.c.o(.text.uECC_verify) refers to micro_ecc_lib_uECC.c.o(.text.uECC_vli_clear) for uECC_vli_clear
    micro_ecc_lib_uECC.c.o(.text.uECC_verify) refers to micro_ecc_lib_uECC.c.o(.text.uECC_vli_modMult_fast) for uECC_vli_modMult_fast
    micro_ecc_lib_uECC.c.o(.text.uECC_verify) refers to micro_ecc_lib_uECC.c.o(.text.uECC_vli_sub) for uECC_vli_sub
    micro_ecc_lib_uECC.c.o(.text.uECC_verify) refers to micro_ecc_lib_uECC.c.o(.text.uECC_vli_equal) for uECC_vli_equal
    micro_ecc_lib_uECC.c.o(.text.uECC_point_mult) refers to micro_ecc_lib_uECC.c.o(.text.regularize_k) for regularize_k
    micro_ecc_lib_uECC.c.o(.text.uECC_point_mult) refers to micro_ecc_lib_uECC.c.o(.text.EccPoint_mult) for EccPoint_mult
    micro_ecc_lib_uECC.c.o(.rodata.curve_secp192r1) refers to micro_ecc_lib_uECC.c.o(.text.double_jacobian_default) for double_jacobian_default
    micro_ecc_lib_uECC.c.o(.rodata.curve_secp192r1) refers to micro_ecc_lib_uECC.c.o(.text.x_side_default) for x_side_default
    micro_ecc_lib_uECC.c.o(.rodata.curve_secp192r1) refers to micro_ecc_lib_uECC.c.o(.text.vli_mmod_fast_secp192r1) for vli_mmod_fast_secp192r1
    micro_ecc_lib_uECC.c.o(.rodata.curve_secp256k1) refers to micro_ecc_lib_uECC.c.o(.text.double_jacobian_secp256k1) for double_jacobian_secp256k1
    micro_ecc_lib_uECC.c.o(.rodata.curve_secp256k1) refers to micro_ecc_lib_uECC.c.o(.text.x_side_secp256k1) for x_side_secp256k1
    micro_ecc_lib_uECC.c.o(.rodata.curve_secp256k1) refers to micro_ecc_lib_uECC.c.o(.text.vli_mmod_fast_secp256k1) for vli_mmod_fast_secp256k1
    micro_ecc_lib_uECC.c.o(.rodata.curve_secp256r1) refers to micro_ecc_lib_uECC.c.o(.text.double_jacobian_default) for double_jacobian_default
    micro_ecc_lib_uECC.c.o(.rodata.curve_secp256r1) refers to micro_ecc_lib_uECC.c.o(.text.x_side_default) for x_side_default
    micro_ecc_lib_uECC.c.o(.rodata.curve_secp256r1) refers to micro_ecc_lib_uECC.c.o(.text.vli_mmod_fast_secp256r1) for vli_mmod_fast_secp256r1
    micro_ecc_lib_uECC.c.o(.rodata.curve_secp160r1) refers to micro_ecc_lib_uECC.c.o(.text.double_jacobian_default) for double_jacobian_default
    micro_ecc_lib_uECC.c.o(.rodata.curve_secp160r1) refers to micro_ecc_lib_uECC.c.o(.text.x_side_default) for x_side_default
    micro_ecc_lib_uECC.c.o(.rodata.curve_secp160r1) refers to micro_ecc_lib_uECC.c.o(.text.vli_mmod_fast_secp160r1) for vli_mmod_fast_secp160r1
    micro_ecc_lib_uECC.c.o(.rodata.curve_secp224r1) refers to micro_ecc_lib_uECC.c.o(.text.double_jacobian_default) for double_jacobian_default
    micro_ecc_lib_uECC.c.o(.rodata.curve_secp224r1) refers to micro_ecc_lib_uECC.c.o(.text.x_side_default) for x_side_default
    micro_ecc_lib_uECC.c.o(.rodata.curve_secp224r1) refers to micro_ecc_lib_uECC.c.o(.text.vli_mmod_fast_secp224r1) for vli_mmod_fast_secp224r1
    round.o(i.__hardfp_round) refers (Special) to iusefp.o(.text) for __I$use$fp
    round.o(i.__hardfp_round) refers to drnd.o(.text) for _drnd
    round.o(i.__hardfp_round) refers to dadd.o(.text) for __aeabi_dsub
    round.o(i.__hardfp_round) refers to cdcmple.o(.text) for __aeabi_cdcmple
    round.o(i.__hardfp_round) refers to cdrcmple.o(.text) for __aeabi_cdrcmple
    round.o(i.round) refers (Special) to iusefp.o(.text) for __I$use$fp
    round.o(i.round) refers to drnd.o(.text) for _drnd
    round.o(i.round) refers to dadd.o(.text) for __aeabi_dsub
    round.o(i.round) refers to cdcmple.o(.text) for __aeabi_cdcmple
    round.o(i.round) refers to cdrcmple.o(.text) for __aeabi_cdrcmple
    entry.o(.ARM.Collect$$$$00000000) refers (Special) to entry10a.o(.ARM.Collect$$$$0000000D) for __rt_final_cpp
    entry.o(.ARM.Collect$$$$00000000) refers (Special) to entry11a.o(.ARM.Collect$$$$0000000F) for __rt_final_exit
    entry.o(.ARM.Collect$$$$00000000) refers (Special) to entry7b.o(.ARM.Collect$$$$00000008) for _main_clock
    entry.o(.ARM.Collect$$$$00000000) refers (Special) to entry8b.o(.ARM.Collect$$$$0000000A) for _main_cpp_init
    entry.o(.ARM.Collect$$$$00000000) refers (Special) to entry9a.o(.ARM.Collect$$$$0000000B) for _main_init
    entry.o(.ARM.Collect$$$$00000000) refers (Special) to entry5.o(.ARM.Collect$$$$00000004) for _main_scatterload
    entry.o(.ARM.Collect$$$$00000000) refers (Special) to entry2.o(.ARM.Collect$$$$00000001) for _main_stk
    fputc.o(i.fputc) refers (Special) to iusesemip.o(.text) for __I$use$semihosting$fputc
    fputc.o(i.fputc) refers (Special) to semi.o(.text) for __semihosting_library_function
    uldiv.o(.text) refers to llushr.o(.text) for __aeabi_llsr
    uldiv.o(.text) refers to llshl.o(.text) for __aeabi_llsl
    dfixui.o(.text) refers (Special) to iusefp.o(.text) for __I$use$fp
    dfixui.o(.text) refers to llushr.o(.text) for __aeabi_llsr
    f2d.o(.text) refers (Special) to iusefp.o(.text) for __I$use$fp
    entry2.o(.ARM.Collect$$$$00000001) refers to entry2.o(.ARM.Collect$$$$00002712) for __lit__00000000
    entry2.o(.ARM.Collect$$$$00002712) refers to arm_startup_nrf52.o(STACK) for __initial_sp
    entry2.o(__vectab_stack_and_reset_area) refers to arm_startup_nrf52.o(STACK) for __initial_sp
    entry2.o(__vectab_stack_and_reset_area) refers to entry.o(.ARM.Collect$$$$00000000) for __main
    entry5.o(.ARM.Collect$$$$00000004) refers to init.o(.text) for __scatterload
    entry9a.o(.ARM.Collect$$$$0000000B) refers to main.o(i.main) for main
    entry9b.o(.ARM.Collect$$$$0000000C) refers to main.o(i.main) for main
    dadd.o(.text) refers to llshl.o(.text) for __aeabi_llsl
    dadd.o(.text) refers to llsshr.o(.text) for __aeabi_lasr
    dadd.o(.text) refers to depilogue.o(.text) for _double_epilogue
    drnd.o(.text) refers to llshl.o(.text) for __aeabi_llsl
    drnd.o(.text) refers to llushr.o(.text) for __aeabi_llsr
    drnd.o(.text) refers to depilogue.o(.text) for _double_round
    init.o(.text) refers to entry5.o(.ARM.Collect$$$$00000004) for __main_after_scatterload
    depilogue.o(.text) refers to llshl.o(.text) for __aeabi_llsl
    depilogue.o(.text) refers to llushr.o(.text) for __aeabi_llsr


==============================================================================

Removing Unused input sections from the image.

    Removing dfu_req_handling.o(.rev16_text), (4 bytes).
    Removing dfu_req_handling.o(.revsh_text), (4 bytes).
    Removing dfu_req_handling.o(.rrx_text), (6 bytes).
    Removing dfu_req_handling.o(.data), (1 bytes).
    Removing main.o(.rev16_text), (4 bytes).
    Removing main.o(.revsh_text), (4 bytes).
    Removing main.o(.rrx_text), (6 bytes).
    Removing drv_sx1509.o(.rev16_text), (4 bytes).
    Removing drv_sx1509.o(.revsh_text), (4 bytes).
    Removing drv_sx1509.o(.rrx_text), (6 bytes).
    Removing drv_sx1509.o(i.drv_sx1509_clock_get), (20 bytes).
    Removing drv_sx1509.o(i.drv_sx1509_data_get), (22 bytes).
    Removing drv_sx1509.o(i.drv_sx1509_debounceconfig_get), (20 bytes).
    Removing drv_sx1509.o(i.drv_sx1509_debounceconfig_modify), (40 bytes).
    Removing drv_sx1509.o(i.drv_sx1509_debounceenable_get), (22 bytes).
    Removing drv_sx1509.o(i.drv_sx1509_debounceenable_modify), (46 bytes).
    Removing drv_sx1509.o(i.drv_sx1509_dir_get), (22 bytes).
    Removing drv_sx1509.o(i.drv_sx1509_eventstatus_clr), (42 bytes).
    Removing drv_sx1509.o(i.drv_sx1509_eventstatus_get), (22 bytes).
    Removing drv_sx1509.o(i.drv_sx1509_highinpmode_get), (22 bytes).
    Removing drv_sx1509.o(i.drv_sx1509_highinpmode_modify), (46 bytes).
    Removing drv_sx1509.o(i.drv_sx1509_inpbufdisable_get), (22 bytes).
    Removing drv_sx1509.o(i.drv_sx1509_interruptmask_get), (22 bytes).
    Removing drv_sx1509.o(i.drv_sx1509_interruptmask_modify), (38 bytes).
    Removing drv_sx1509.o(i.drv_sx1509_interruptsource_clr), (42 bytes).
    Removing drv_sx1509.o(i.drv_sx1509_interruptsource_get), (22 bytes).
    Removing drv_sx1509.o(i.drv_sx1509_keyconfig_get), (22 bytes).
    Removing drv_sx1509.o(i.drv_sx1509_keyconfig_modify), (60 bytes).
    Removing drv_sx1509.o(i.drv_sx1509_keydata_get), (32 bytes).
    Removing drv_sx1509.o(i.drv_sx1509_leddriverenable_get), (22 bytes).
    Removing drv_sx1509.o(i.drv_sx1509_levelshifter_get), (52 bytes).
    Removing drv_sx1509.o(i.drv_sx1509_levelshifter_modify), (48 bytes).
    Removing drv_sx1509.o(i.drv_sx1509_longslewrate_get), (22 bytes).
    Removing drv_sx1509.o(i.drv_sx1509_longslewrate_modify), (46 bytes).
    Removing drv_sx1509.o(i.drv_sx1509_lowdrive_get), (22 bytes).
    Removing drv_sx1509.o(i.drv_sx1509_lowdrive_modify), (46 bytes).
    Removing drv_sx1509.o(i.drv_sx1509_misc_get), (20 bytes).
    Removing drv_sx1509.o(i.drv_sx1509_onoffcfgx_get), (82 bytes).
    Removing drv_sx1509.o(i.drv_sx1509_opendrain_get), (22 bytes).
    Removing drv_sx1509.o(i.drv_sx1509_polarity_get), (22 bytes).
    Removing drv_sx1509.o(i.drv_sx1509_polarity_modify), (46 bytes).
    Removing drv_sx1509.o(i.drv_sx1509_pulldown_get), (22 bytes).
    Removing drv_sx1509.o(i.drv_sx1509_pullup_get), (22 bytes).
    Removing drv_sx1509.o(i.drv_sx1509_reg_get), (16 bytes).
    Removing drv_sx1509.o(i.drv_sx1509_risefallcfgx_get), (62 bytes).
    Removing drv_sx1509.o(i.drv_sx1509_sense_get), (88 bytes).
    Removing drv_sx1509.o(i.drv_sx1509_sense_modify), (80 bytes).
    Removing drv_sx1509.o(i.two_registers_get), (60 bytes).
    Removing twi_manager.o(.rev16_text), (4 bytes).
    Removing twi_manager.o(.revsh_text), (4 bytes).
    Removing twi_manager.o(.rrx_text), (6 bytes).
    Removing twi_manager.o(i.twi_manager_collision_get), (12 bytes).
    Removing twi_manager.o(i.twi_manager_collision_reset), (12 bytes).
    Removing twi_manager.o(i.twi_manager_init), (16 bytes).
    Removing twi_manager.o(i.twi_manager_release), (10 bytes).
    Removing nrf_drv_twi.o(.rev16_text), (4 bytes).
    Removing nrf_drv_twi.o(.revsh_text), (4 bytes).
    Removing nrf_drv_twi.o(.rrx_text), (6 bytes).
    Removing nrf_drv_twi.o(i.nrf_drv_twi_data_count_get), (24 bytes).
    Removing nrf_drv_twi.o(i.nrf_drv_twi_start_task_get), (16 bytes).
    Removing nrf_drv_twi.o(i.nrf_drv_twi_stopped_event_get), (8 bytes).
    Removing drv_ext_light.o(.rev16_text), (4 bytes).
    Removing drv_ext_light.o(.revsh_text), (4 bytes).
    Removing drv_ext_light.o(.rrx_text), (6 bytes).
    Removing drv_ext_light.o(i.drv_ext_light_intensity_set), (152 bytes).
    Removing drv_ext_light.o(i.drv_ext_light_off), (152 bytes).
    Removing drv_ext_light.o(i.drv_ext_light_on), (152 bytes).
    Removing drv_ext_light.o(i.drv_ext_light_reset), (124 bytes).
    Removing drv_ext_light.o(i.drv_ext_light_rgb_intensity_set), (132 bytes).
    Removing drv_ext_light.o(i.drv_ext_light_sequence), (148 bytes).
    Removing drv_ext_light.o(i.m_ioext_cmd_process_rgb_intensity), (52 bytes).
    Removing drv_ext_light.o(i.m_rgb_intensity), (272 bytes).
    Removing ble_advdata.o(.rev16_text), (4 bytes).
    Removing ble_advdata.o(.revsh_text), (4 bytes).
    Removing ble_advdata.o(.rrx_text), (6 bytes).
    Removing ble_conn_params.o(.rev16_text), (4 bytes).
    Removing ble_conn_params.o(.revsh_text), (4 bytes).
    Removing ble_conn_params.o(.rrx_text), (6 bytes).
    Removing ble_conn_params.o(i.ble_conn_params_change_conn_params), (76 bytes).
    Removing ble_srv_common.o(.rev16_text), (4 bytes).
    Removing ble_srv_common.o(.revsh_text), (4 bytes).
    Removing ble_srv_common.o(.rrx_text), (6 bytes).
    Removing ble_srv_common.o(i.ble_srv_ascii_to_utf8), (18 bytes).
    Removing ble_srv_common.o(i.ble_srv_is_indication_enabled), (8 bytes).
    Removing ble_srv_common.o(i.ble_srv_report_ref_encode), (12 bytes).
    Removing ble_srv_common.o(i.characteristic_add), (400 bytes).
    Removing ble_srv_common.o(i.descriptor_add), (170 bytes).
    Removing ble_srv_common.o(i.set_security_req), (48 bytes).
    Removing nrf_ble_dfu.o(.rev16_text), (4 bytes).
    Removing nrf_ble_dfu.o(.revsh_text), (4 bytes).
    Removing nrf_ble_dfu.o(.rrx_text), (6 bytes).
    Removing nrf_bootloader.o(.rev16_text), (4 bytes).
    Removing nrf_bootloader.o(.revsh_text), (4 bytes).
    Removing nrf_bootloader.o(.rrx_text), (6 bytes).
    Removing nrf_bootloader.o(i.nrf_dfu_init), (4 bytes).
    Removing nrf_bootloader.o(i.nrf_dfu_init_user), (4 bytes).
    Removing nrf_bootloader_app_start.o(.rev16_text), (4 bytes).
    Removing nrf_bootloader_app_start.o(.revsh_text), (4 bytes).
    Removing nrf_bootloader_app_start.o(.rrx_text), (6 bytes).
    Removing nrf_bootloader_info.o(.rev16_text), (4 bytes).
    Removing nrf_bootloader_info.o(.revsh_text), (4 bytes).
    Removing nrf_bootloader_info.o(.rrx_text), (6 bytes).
    Removing nrf_dfu.o(.rev16_text), (4 bytes).
    Removing nrf_dfu.o(.revsh_text), (4 bytes).
    Removing nrf_dfu.o(.rrx_text), (6 bytes).
    Removing nrf_dfu_flash.o(.rev16_text), (4 bytes).
    Removing nrf_dfu_flash.o(.revsh_text), (4 bytes).
    Removing nrf_dfu_flash.o(.rrx_text), (6 bytes).
    Removing nrf_dfu_flash.o(i.nrf_dfu_flash_error_clear), (16 bytes).
    Removing nrf_dfu_flash.o(i.nrf_dfu_flash_wait), (36 bytes).
    Removing nrf_dfu_mbr.o(.rev16_text), (4 bytes).
    Removing nrf_dfu_mbr.o(.revsh_text), (4 bytes).
    Removing nrf_dfu_mbr.o(.rrx_text), (6 bytes).
    Removing nrf_dfu_mbr.o(i.nrf_dfu_mbr_vector_table_set), (32 bytes).
    Removing nrf_dfu_settings.o(.rev16_text), (4 bytes).
    Removing nrf_dfu_settings.o(.revsh_text), (4 bytes).
    Removing nrf_dfu_settings.o(.rrx_text), (6 bytes).
    Removing nrf_dfu_transport.o(.rev16_text), (4 bytes).
    Removing nrf_dfu_transport.o(.revsh_text), (4 bytes).
    Removing nrf_dfu_transport.o(.rrx_text), (6 bytes).
    Removing nrf_dfu_utils.o(.rev16_text), (4 bytes).
    Removing nrf_dfu_utils.o(.revsh_text), (4 bytes).
    Removing nrf_dfu_utils.o(.rrx_text), (6 bytes).
    Removing nrf_drv_common.o(.rev16_text), (4 bytes).
    Removing nrf_drv_common.o(.revsh_text), (4 bytes).
    Removing nrf_drv_common.o(.rrx_text), (6 bytes).
    Removing nrf_drv_rng.o(.rev16_text), (4 bytes).
    Removing nrf_drv_rng.o(.revsh_text), (4 bytes).
    Removing nrf_drv_rng.o(.rrx_text), (6 bytes).
    Removing nrf_drv_rng.o(i.nrf_drv_rng_block_rand), (58 bytes).
    Removing nrf_drv_rng.o(i.nrf_drv_rng_bytes_available), (4 bytes).
    Removing nrf_drv_rng.o(i.nrf_drv_rng_init), (36 bytes).
    Removing nrf_drv_rng.o(i.nrf_drv_rng_pool_capacity), (4 bytes).
    Removing nrf_drv_rng.o(i.nrf_drv_rng_rand), (4 bytes).
    Removing nrf_drv_rng.o(i.nrf_drv_rng_uninit), (12 bytes).
    Removing nrf_drv_rng.o(.data), (1 bytes).
    Removing nrf_nvmc.o(.rev16_text), (4 bytes).
    Removing nrf_nvmc.o(.revsh_text), (4 bytes).
    Removing nrf_nvmc.o(.rrx_text), (6 bytes).
    Removing nrf_nvmc.o(i.nrf_nvmc_write_byte), (60 bytes).
    Removing nrf_nvmc.o(i.nrf_nvmc_write_bytes), (28 bytes).
    Removing nrf_nvmc.o(i.nrf_nvmc_write_word), (44 bytes).
    Removing app_error_weak.o(.rev16_text), (4 bytes).
    Removing app_error_weak.o(.revsh_text), (4 bytes).
    Removing app_error_weak.o(.rrx_text), (6 bytes).
    Removing app_error_weak.o(i.app_error_fault_handler), (36 bytes).
    Removing app_fifo.o(.rev16_text), (4 bytes).
    Removing app_fifo.o(.revsh_text), (4 bytes).
    Removing app_fifo.o(.rrx_text), (6 bytes).
    Removing app_fifo.o(i.app_fifo_flush), (8 bytes).
    Removing app_fifo.o(i.app_fifo_get), (22 bytes).
    Removing app_fifo.o(i.app_fifo_init), (32 bytes).
    Removing app_fifo.o(i.app_fifo_peek), (34 bytes).
    Removing app_fifo.o(i.app_fifo_put), (26 bytes).
    Removing app_fifo.o(i.app_fifo_read), (74 bytes).
    Removing app_fifo.o(i.app_fifo_write), (82 bytes).
    Removing app_fifo.o(i.fifo_get), (20 bytes).
    Removing app_fifo.o(i.fifo_put), (18 bytes).
    Removing app_scheduler.o(.rev16_text), (4 bytes).
    Removing app_scheduler.o(.revsh_text), (4 bytes).
    Removing app_scheduler.o(.rrx_text), (6 bytes).
    Removing app_scheduler.o(i.app_sched_queue_space_get), (36 bytes).
    Removing app_timer.o(.rev16_text), (4 bytes).
    Removing app_timer.o(.revsh_text), (4 bytes).
    Removing app_timer.o(.rrx_text), (6 bytes).
    Removing app_timer.o(i.app_timer_cnt_diff_compute), (12 bytes).
    Removing app_timer.o(i.app_timer_cnt_get), (12 bytes).
    Removing app_timer.o(i.app_timer_stop_all), (24 bytes).
    Removing app_timer_appsh.o(.rev16_text), (4 bytes).
    Removing app_timer_appsh.o(.revsh_text), (4 bytes).
    Removing app_timer_appsh.o(.rrx_text), (6 bytes).
    Removing app_util_platform.o(.rev16_text), (4 bytes).
    Removing app_util_platform.o(.revsh_text), (4 bytes).
    Removing app_util_platform.o(.rrx_text), (6 bytes).
    Removing app_util_platform.o(i.app_util_disable_irq), (16 bytes).
    Removing app_util_platform.o(i.app_util_enable_irq), (20 bytes).
    Removing app_util_platform.o(.data), (4 bytes).
    Removing ecc.o(.rev16_text), (4 bytes).
    Removing ecc.o(.revsh_text), (4 bytes).
    Removing ecc.o(.rrx_text), (6 bytes).
    Removing ecc.o(i.ecc_init), (16 bytes).
    Removing ecc.o(i.ecc_p256_keypair_gen), (56 bytes).
    Removing ecc.o(i.ecc_p256_public_key_compute), (56 bytes).
    Removing ecc.o(i.ecc_p256_shared_secret_compute), (70 bytes).
    Removing ecc.o(i.ecc_p256_sign), (74 bytes).
    Removing ecc.o(i.ecc_rng), (16 bytes).
    Removing fstorage.o(.rev16_text), (4 bytes).
    Removing fstorage.o(.revsh_text), (4 bytes).
    Removing fstorage.o(.rrx_text), (6 bytes).
    Removing fstorage.o(i.fs_init), (176 bytes).
    Removing fstorage.o(i.fs_queued_op_count_get), (20 bytes).
    Removing hci_mem_pool.o(i.hci_mem_pool_close), (4 bytes).
    Removing hci_mem_pool.o(i.hci_mem_pool_open), (40 bytes).
    Removing hci_mem_pool.o(i.hci_mem_pool_rx_consume), (112 bytes).
    Removing hci_mem_pool.o(i.hci_mem_pool_rx_data_size_set), (36 bytes).
    Removing hci_mem_pool.o(i.hci_mem_pool_rx_extract), (72 bytes).
    Removing hci_mem_pool.o(i.hci_mem_pool_rx_produce), (84 bytes).
    Removing hci_mem_pool.o(i.hci_mem_pool_tx_alloc), (36 bytes).
    Removing hci_mem_pool.o(i.hci_mem_pool_tx_free), (12 bytes).
    Removing hci_mem_pool.o(.bss), (3044 bytes).
    Removing hci_mem_pool.o(.data), (1 bytes).
    Removing nrf_assert.o(.rev16_text), (4 bytes).
    Removing nrf_assert.o(.revsh_text), (4 bytes).
    Removing nrf_assert.o(.rrx_text), (6 bytes).
    Removing nrf_assert.o(i.assert_nrf_callback), (22 bytes).
    Removing nrf_crypto.o(.rev16_text), (4 bytes).
    Removing nrf_crypto.o(.revsh_text), (4 bytes).
    Removing nrf_crypto.o(.rrx_text), (6 bytes).
    Removing nrf_crypto.o(i.nrf_crypto_init), (12 bytes).
    Removing nrf_crypto.o(i.nrf_crypto_public_key_compute), (34 bytes).
    Removing nrf_crypto.o(i.nrf_crypto_shared_secret_compute), (50 bytes).
    Removing nrf_crypto.o(i.nrf_crypto_sign), (46 bytes).
    Removing sha256.o(.rev16_text), (4 bytes).
    Removing sha256.o(.revsh_text), (4 bytes).
    Removing sha256.o(.rrx_text), (6 bytes).
    Removing softdevice_handler.o(.rev16_text), (4 bytes).
    Removing softdevice_handler.o(.revsh_text), (4 bytes).
    Removing softdevice_handler.o(.rrx_text), (6 bytes).
    Removing softdevice_handler.o(i.sd_check_ram_start), (16 bytes).
    Removing softdevice_handler.o(i.softdevice_handler_is_enabled), (12 bytes).
    Removing softdevice_handler.o(i.softdevice_handler_is_suspended), (12 bytes).
    Removing softdevice_handler.o(i.softdevice_handler_resume), (68 bytes).
    Removing softdevice_handler.o(i.softdevice_handler_sd_disable), (20 bytes).
    Removing softdevice_handler.o(i.softdevice_handler_suspend), (64 bytes).
    Removing softdevice_handler_appsh.o(.rev16_text), (4 bytes).
    Removing softdevice_handler_appsh.o(.revsh_text), (4 bytes).
    Removing softdevice_handler_appsh.o(.rrx_text), (6 bytes).
    Removing pb_decode.o(i.pb_close_string_substream), (6 bytes).
    Removing pb_decode.o(i.pb_decode_delimited), (36 bytes).
    Removing rtt_syscalls_keil.o(i._sys_close), (4 bytes).
    Removing rtt_syscalls_keil.o(i._sys_command_string), (2 bytes).
    Removing rtt_syscalls_keil.o(i._sys_ensure), (6 bytes).
    Removing rtt_syscalls_keil.o(i._sys_exit), (2 bytes).
    Removing rtt_syscalls_keil.o(i._sys_flen), (4 bytes).
    Removing rtt_syscalls_keil.o(i._sys_istty), (14 bytes).
    Removing rtt_syscalls_keil.o(i._sys_open), (44 bytes).
    Removing rtt_syscalls_keil.o(i._sys_read), (4 bytes).
    Removing rtt_syscalls_keil.o(i._sys_seek), (4 bytes).
    Removing rtt_syscalls_keil.o(i._sys_tmpnam), (4 bytes).
    Removing rtt_syscalls_keil.o(i._sys_write), (26 bytes).
    Removing rtt_syscalls_keil.o(i._ttywrch), (24 bytes).
    Removing rtt_syscalls_keil.o(.constdata), (6 bytes).
    Removing rtt_syscalls_keil.o(.constdata), (14 bytes).
    Removing segger_rtt.o(i.SEGGER_RTT_ConfigDownBuffer), (80 bytes).
    Removing segger_rtt.o(i.SEGGER_RTT_ConfigUpBuffer), (80 bytes).
    Removing segger_rtt.o(i.SEGGER_RTT_GetKey), (28 bytes).
    Removing segger_rtt.o(i.SEGGER_RTT_HasData), (24 bytes).
    Removing segger_rtt.o(i.SEGGER_RTT_HasKey), (32 bytes).
    Removing segger_rtt.o(i.SEGGER_RTT_Init), (20 bytes).
    Removing segger_rtt.o(i.SEGGER_RTT_Read), (4 bytes).
    Removing segger_rtt.o(i.SEGGER_RTT_ReadNoLock), (124 bytes).
    Removing segger_rtt.o(i.SEGGER_RTT_SetNameDownBuffer), (48 bytes).
    Removing segger_rtt.o(i.SEGGER_RTT_SetNameUpBuffer), (48 bytes).
    Removing segger_rtt.o(i.SEGGER_RTT_SetTerminal), (116 bytes).
    Removing segger_rtt.o(i.SEGGER_RTT_TerminalOut), (152 bytes).
    Removing segger_rtt.o(i.SEGGER_RTT_WaitKey), (14 bytes).
    Removing segger_rtt.o(i.SEGGER_RTT_WriteSkipNoLock), (116 bytes).
    Removing segger_rtt.o(i.SEGGER_RTT_WriteString), (26 bytes).
    Removing segger_rtt.o(i._PostTerminalSwitch), (32 bytes).
    Removing segger_rtt.o(.data), (17 bytes).
    Removing arm_startup_nrf52.o(HEAP), (0 bytes).
    Removing system_nrf52.o(.rev16_text), (4 bytes).
    Removing system_nrf52.o(.revsh_text), (4 bytes).
    Removing system_nrf52.o(.rrx_text), (6 bytes).
    Removing system_nrf52.o(i.SystemCoreClockUpdate), (16 bytes).
    Removing micro_ecc_lib_uECC.c.o(.text), (0 bytes).
    Removing micro_ecc_lib_uECC.c.o(.data), (0 bytes).
    Removing micro_ecc_lib_uECC.c.o(.bss), (0 bytes).
    Removing micro_ecc_lib_uECC.c.o(.text.HMAC_init), (70 bytes).
    Removing micro_ecc_lib_uECC.c.o(.text.HMAC_update), (4 bytes).
    Removing micro_ecc_lib_uECC.c.o(.text.HMAC_finish), (98 bytes).
    Removing micro_ecc_lib_uECC.c.o(.text.update_V), (36 bytes).
    Removing micro_ecc_lib_uECC.c.o(.text.omega_mult_secp256k1), (52 bytes).
    Removing micro_ecc_lib_uECC.c.o(.text.uECC_set_rng), (12 bytes).
    Removing micro_ecc_lib_uECC.c.o(.text.uECC_get_rng), (12 bytes).
    Removing micro_ecc_lib_uECC.c.o(.text.uECC_curve_private_key_size), (14 bytes).
    Removing micro_ecc_lib_uECC.c.o(.text.uECC_curve_public_key_size), (8 bytes).
    Removing micro_ecc_lib_uECC.c.o(.text.vli_mmod_fast_secp256k1), (132 bytes).
    Removing micro_ecc_lib_uECC.c.o(.text.regularize_k), (90 bytes).
    Removing micro_ecc_lib_uECC.c.o(.text.vli_mmod_fast_secp192r1), (148 bytes).
    Removing micro_ecc_lib_uECC.c.o(.text.vli_mmod_fast_secp224r1), (220 bytes).
    Removing micro_ecc_lib_uECC.c.o(.text.uECC_vli_cmp), (54 bytes).
    Removing micro_ecc_lib_uECC.c.o(.text.omega_mult_secp160r1), (66 bytes).
    Removing micro_ecc_lib_uECC.c.o(.text.vli_mmod_fast_secp160r1), (132 bytes).
    Removing micro_ecc_lib_uECC.c.o(.text.uECC_vli_modSquare), (34 bytes).
    Removing micro_ecc_lib_uECC.c.o(.text.x_side_secp256k1), (46 bytes).
    Removing micro_ecc_lib_uECC.c.o(.text.double_jacobian_secp256k1), (266 bytes).
    Removing micro_ecc_lib_uECC.c.o(.text.XYcZ_addC), (280 bytes).
    Removing micro_ecc_lib_uECC.c.o(.text.EccPoint_mult), (418 bytes).
    Removing micro_ecc_lib_uECC.c.o(.text.EccPoint_compute_public_key), (86 bytes).
    Removing micro_ecc_lib_uECC.c.o(.text.uECC_secp160r1), (8 bytes).
    Removing micro_ecc_lib_uECC.c.o(.text.uECC_secp192r1), (8 bytes).
    Removing micro_ecc_lib_uECC.c.o(.text.uECC_secp224r1), (8 bytes).
    Removing micro_ecc_lib_uECC.c.o(.text.uECC_secp256k1), (8 bytes).
    Removing micro_ecc_lib_uECC.c.o(.text.uECC_vli_nativeToBytes), (40 bytes).
    Removing micro_ecc_lib_uECC.c.o(.text.uECC_vli_bytesToNative), (66 bytes).
    Removing micro_ecc_lib_uECC.c.o(.text.uECC_generate_random_int), (120 bytes).
    Removing micro_ecc_lib_uECC.c.o(.text.uECC_sign_with_k), (364 bytes).
    Removing micro_ecc_lib_uECC.c.o(.text.uECC_make_key), (62 bytes).
    Removing micro_ecc_lib_uECC.c.o(.text.uECC_shared_secret), (164 bytes).
    Removing micro_ecc_lib_uECC.c.o(.text.uECC_valid_point), (108 bytes).
    Removing micro_ecc_lib_uECC.c.o(.text.uECC_valid_public_key), (4 bytes).
    Removing micro_ecc_lib_uECC.c.o(.text.uECC_compute_public_key), (68 bytes).
    Removing micro_ecc_lib_uECC.c.o(.text.uECC_sign), (82 bytes).
    Removing micro_ecc_lib_uECC.c.o(.text.uECC_sign_deterministic), (418 bytes).
    Removing micro_ecc_lib_uECC.c.o(.text.uECC_curve_num_words), (6 bytes).
    Removing micro_ecc_lib_uECC.c.o(.text.uECC_curve_num_bytes), (6 bytes).
    Removing micro_ecc_lib_uECC.c.o(.text.uECC_curve_num_bits), (8 bytes).
    Removing micro_ecc_lib_uECC.c.o(.text.uECC_curve_num_n_words), (14 bytes).
    Removing micro_ecc_lib_uECC.c.o(.text.uECC_curve_num_n_bytes), (14 bytes).
    Removing micro_ecc_lib_uECC.c.o(.text.uECC_curve_num_n_bits), (6 bytes).
    Removing micro_ecc_lib_uECC.c.o(.text.uECC_curve_p), (4 bytes).
    Removing micro_ecc_lib_uECC.c.o(.text.uECC_curve_n), (4 bytes).
    Removing micro_ecc_lib_uECC.c.o(.text.uECC_curve_G), (4 bytes).
    Removing micro_ecc_lib_uECC.c.o(.text.uECC_curve_b), (4 bytes).
    Removing micro_ecc_lib_uECC.c.o(.text.uECC_vli_mmod_fast), (6 bytes).
    Removing micro_ecc_lib_uECC.c.o(.text.uECC_point_mult), (66 bytes).
    Removing micro_ecc_lib_uECC.c.o(.rodata.curve_secp192r1), (176 bytes).
    Removing micro_ecc_lib_uECC.c.o(.rodata.curve_secp256k1), (176 bytes).
    Removing micro_ecc_lib_uECC.c.o(.rodata.curve_secp160r1), (176 bytes).
    Removing micro_ecc_lib_uECC.c.o(.rodata.curve_secp224r1), (176 bytes).
    Removing micro_ecc_lib_uECC.c.o(.bss.g_rng_function), (4 bytes).

322 unused section(s) (total 14836 bytes) removed from the image.

==============================================================================

Image Symbol Table

    Local Symbols

    Symbol Name                              Value     Ov Type        Size  Object(Section)

    ../clib/microlib/division.c              0x00000000   Number         0  uldiv.o ABSOLUTE
    ../clib/microlib/init/entry.s            0x00000000   Number         0  entry10b.o ABSOLUTE
    ../clib/microlib/init/entry.s            0x00000000   Number         0  entry9b.o ABSOLUTE
    ../clib/microlib/init/entry.s            0x00000000   Number         0  entry9a.o ABSOLUTE
    ../clib/microlib/init/entry.s            0x00000000   Number         0  entry11b.o ABSOLUTE
    ../clib/microlib/init/entry.s            0x00000000   Number         0  entry8b.o ABSOLUTE
    ../clib/microlib/init/entry.s            0x00000000   Number         0  entry8a.o ABSOLUTE
    ../clib/microlib/init/entry.s            0x00000000   Number         0  entry7b.o ABSOLUTE
    ../clib/microlib/init/entry.s            0x00000000   Number         0  entry2.o ABSOLUTE
    ../clib/microlib/init/entry.s            0x00000000   Number         0  entry11a.o ABSOLUTE
    ../clib/microlib/init/entry.s            0x00000000   Number         0  entry5.o ABSOLUTE
    ../clib/microlib/init/entry.s            0x00000000   Number         0  entry.o ABSOLUTE
    ../clib/microlib/init/entry.s            0x00000000   Number         0  entry10a.o ABSOLUTE
    ../clib/microlib/init/entry.s            0x00000000   Number         0  entry7a.o ABSOLUTE
    ../clib/microlib/longlong.c              0x00000000   Number         0  llushr.o ABSOLUTE
    ../clib/microlib/longlong.c              0x00000000   Number         0  llshl.o ABSOLUTE
    ../clib/microlib/longlong.c              0x00000000   Number         0  llsshr.o ABSOLUTE
    ../clib/microlib/stdio/fflush.c          0x00000000   Number         0  fflush.o ABSOLUTE
    ../clib/microlib/stdio/fputc.c           0x00000000   Number         0  fputc.o ABSOLUTE
    ../clib/microlib/stdio/semi.s            0x00000000   Number         0  semi.o ABSOLUTE
    ../clib/microlib/stdio/streams.c         0x00000000   Number         0  stdout.o ABSOLUTE
    ../clib/microlib/string/memcmp.c         0x00000000   Number         0  memcmp.o ABSOLUTE
    ../clib/microlib/string/memcpy.c         0x00000000   Number         0  memcpya.o ABSOLUTE
    ../clib/microlib/string/memcpy.c         0x00000000   Number         0  memcpyb.o ABSOLUTE
    ../clib/microlib/string/memset.c         0x00000000   Number         0  memset.o ABSOLUTE
    ../clib/microlib/string/memset.c         0x00000000   Number         0  memseta.o ABSOLUTE
    ../clib/microlib/string/strcmp.c         0x00000000   Number         0  strcmp.o ABSOLUTE
    ../clib/microlib/string/strcpy.c         0x00000000   Number         0  strcpy.o ABSOLUTE
    ../clib/microlib/string/strlen.c         0x00000000   Number         0  strlen.o ABSOLUTE
    ../clib/microlib/stubs.s                 0x00000000   Number         0  iusefp.o ABSOLUTE
    ../clib/microlib/stubs.s                 0x00000000   Number         0  iusesemip.o ABSOLUTE
    ../fplib/microlib/f2d.c                  0x00000000   Number         0  f2d.o ABSOLUTE
    ../fplib/microlib/fpadd.c                0x00000000   Number         0  dadd.o ABSOLUTE
    ../fplib/microlib/fpepilogue.c           0x00000000   Number         0  depilogue.o ABSOLUTE
    ../fplib/microlib/fpfix.c                0x00000000   Number         0  dfixui.o ABSOLUTE
    ../fplib/microlib/fprnd.c                0x00000000   Number         0  drnd.o ABSOLUTE
    ../mathlib/round.c                       0x00000000   Number         0  round.o ABSOLUTE
    ..\..\..\..\external\nano-pb\pb_common.c 0x00000000   Number         0  pb_common.o ABSOLUTE
    ..\..\..\..\external\nano-pb\pb_decode.c 0x00000000   Number         0  pb_decode.o ABSOLUTE
    ..\..\..\..\external\segger_rtt\RTT_Syscalls_KEIL.c 0x00000000   Number         0  rtt_syscalls_keil.o ABSOLUTE
    ..\..\..\..\external\segger_rtt\SEGGER_RTT.c 0x00000000   Number         0  segger_rtt.o ABSOLUTE
    ..\..\..\..\external\segger_rtt\SEGGER_RTT_printf.c 0x00000000   Number         0  segger_rtt_printf.o ABSOLUTE
    ..\..\..\..\sdk_components\ble\common\ble_advdata.c 0x00000000   Number         0  ble_advdata.o ABSOLUTE
    ..\..\..\..\sdk_components\ble\common\ble_conn_params.c 0x00000000   Number         0  ble_conn_params.o ABSOLUTE
    ..\..\..\..\sdk_components\ble\common\ble_srv_common.c 0x00000000   Number         0  ble_srv_common.o ABSOLUTE
    ..\..\..\..\sdk_components\drivers_nrf\common\nrf_drv_common.c 0x00000000   Number         0  nrf_drv_common.o ABSOLUTE
    ..\..\..\..\sdk_components\drivers_nrf\hal\nrf_nvmc.c 0x00000000   Number         0  nrf_nvmc.o ABSOLUTE
    ..\..\..\..\sdk_components\drivers_nrf\rng\nrf_drv_rng.c 0x00000000   Number         0  nrf_drv_rng.o ABSOLUTE
    ..\..\..\..\sdk_components\drivers_nrf\twi_master\nrf_drv_twi.c 0x00000000   Number         0  nrf_drv_twi.o ABSOLUTE
    ..\..\..\..\sdk_components\libraries\bootloader\ble_dfu\nrf_ble_dfu.c 0x00000000   Number         0  nrf_ble_dfu.o ABSOLUTE
    ..\..\..\..\sdk_components\libraries\bootloader\dfu\nrf_dfu.c 0x00000000   Number         0  nrf_dfu.o ABSOLUTE
    ..\..\..\..\sdk_components\libraries\bootloader\dfu\nrf_dfu_flash.c 0x00000000   Number         0  nrf_dfu_flash.o ABSOLUTE
    ..\..\..\..\sdk_components\libraries\bootloader\dfu\nrf_dfu_mbr.c 0x00000000   Number         0  nrf_dfu_mbr.o ABSOLUTE
    ..\..\..\..\sdk_components\libraries\bootloader\dfu\nrf_dfu_settings.c 0x00000000   Number         0  nrf_dfu_settings.o ABSOLUTE
    ..\..\..\..\sdk_components\libraries\bootloader\dfu\nrf_dfu_transport.c 0x00000000   Number         0  nrf_dfu_transport.o ABSOLUTE
    ..\..\..\..\sdk_components\libraries\bootloader\dfu\nrf_dfu_utils.c 0x00000000   Number         0  nrf_dfu_utils.o ABSOLUTE
    ..\..\..\..\sdk_components\libraries\bootloader\nrf_bootloader.c 0x00000000   Number         0  nrf_bootloader.o ABSOLUTE
    ..\..\..\..\sdk_components\libraries\bootloader\nrf_bootloader_app_start.c 0x00000000   Number         0  nrf_bootloader_app_start.o ABSOLUTE
    ..\..\..\..\sdk_components\libraries\bootloader\nrf_bootloader_info.c 0x00000000   Number         0  nrf_bootloader_info.o ABSOLUTE
    ..\..\..\..\sdk_components\libraries\crc32\crc32.c 0x00000000   Number         0  crc32.o ABSOLUTE
    ..\..\..\..\sdk_components\libraries\crypto\nrf_crypto.c 0x00000000   Number         0  nrf_crypto.o ABSOLUTE
    ..\..\..\..\sdk_components\libraries\ecc\ecc.c 0x00000000   Number         0  ecc.o ABSOLUTE
    ..\..\..\..\sdk_components\libraries\fifo\app_fifo.c 0x00000000   Number         0  app_fifo.o ABSOLUTE
    ..\..\..\..\sdk_components\libraries\fstorage\fstorage.c 0x00000000   Number         0  fstorage.o ABSOLUTE
    ..\..\..\..\sdk_components\libraries\hci\hci_mem_pool.c 0x00000000   Number         0  hci_mem_pool.o ABSOLUTE
    ..\..\..\..\sdk_components\libraries\scheduler\app_scheduler.c 0x00000000   Number         0  app_scheduler.o ABSOLUTE
    ..\..\..\..\sdk_components\libraries\sha256\sha256.c 0x00000000   Number         0  sha256.o ABSOLUTE
    ..\..\..\..\sdk_components\libraries\timer\app_timer.c 0x00000000   Number         0  app_timer.o ABSOLUTE
    ..\..\..\..\sdk_components\libraries\timer\app_timer_appsh.c 0x00000000   Number         0  app_timer_appsh.o ABSOLUTE
    ..\..\..\..\sdk_components\libraries\util\app_error_weak.c 0x00000000   Number         0  app_error_weak.o ABSOLUTE
    ..\..\..\..\sdk_components\libraries\util\app_util_platform.c 0x00000000   Number         0  app_util_platform.o ABSOLUTE
    ..\..\..\..\sdk_components\libraries\util\nrf_assert.c 0x00000000   Number         0  nrf_assert.o ABSOLUTE
    ..\..\..\..\sdk_components\softdevice\common\softdevice_handler\softdevice_handler.c 0x00000000   Number         0  softdevice_handler.o ABSOLUTE
    ..\..\..\..\sdk_components\softdevice\common\softdevice_handler\softdevice_handler_appsh.c 0x00000000   Number         0  softdevice_handler_appsh.o ABSOLUTE
    ..\..\..\..\source\drivers\drv_ext_light.c 0x00000000   Number         0  drv_ext_light.o ABSOLUTE
    ..\..\..\..\source\drivers\drv_sx1509.c  0x00000000   Number         0  drv_sx1509.o ABSOLUTE
    ..\..\..\..\source\util\sx150x_led_drv_calc.c 0x00000000   Number         0  sx150x_led_drv_calc.o ABSOLUTE
    ..\..\..\..\source\util\twi_manager.c    0x00000000   Number         0  twi_manager.o ABSOLUTE
    ..\..\dfu-cc.pb.c                        0x00000000   Number         0  dfu-cc.pb.o ABSOLUTE
    ..\..\dfu_public_key.c                   0x00000000   Number         0  dfu_public_key.o ABSOLUTE
    ..\..\dfu_req_handling.c                 0x00000000   Number         0  dfu_req_handling.o ABSOLUTE
    ..\..\main.c                             0x00000000   Number         0  main.o ABSOLUTE
    ..\\..\\..\\..\\sdk_components\\ble\\common\\ble_advdata.c 0x00000000   Number         0  ble_advdata.o ABSOLUTE
    ..\\..\\..\\..\\sdk_components\\ble\\common\\ble_conn_params.c 0x00000000   Number         0  ble_conn_params.o ABSOLUTE
    ..\\..\\..\\..\\sdk_components\\ble\\common\\ble_srv_common.c 0x00000000   Number         0  ble_srv_common.o ABSOLUTE
    ..\\..\\..\\..\\sdk_components\\drivers_nrf\\common\\nrf_drv_common.c 0x00000000   Number         0  nrf_drv_common.o ABSOLUTE
    ..\\..\\..\\..\\sdk_components\\drivers_nrf\\hal\\nrf_nvmc.c 0x00000000   Number         0  nrf_nvmc.o ABSOLUTE
    ..\\..\\..\\..\\sdk_components\\drivers_nrf\\rng\\nrf_drv_rng.c 0x00000000   Number         0  nrf_drv_rng.o ABSOLUTE
    ..\\..\\..\\..\\sdk_components\\drivers_nrf\\twi_master\\nrf_drv_twi.c 0x00000000   Number         0  nrf_drv_twi.o ABSOLUTE
    ..\\..\\..\\..\\sdk_components\\libraries\\bootloader\\ble_dfu\\nrf_ble_dfu.c 0x00000000   Number         0  nrf_ble_dfu.o ABSOLUTE
    ..\\..\\..\\..\\sdk_components\\libraries\\bootloader\\dfu\\nrf_dfu.c 0x00000000   Number         0  nrf_dfu.o ABSOLUTE
    ..\\..\\..\\..\\sdk_components\\libraries\\bootloader\\dfu\\nrf_dfu_flash.c 0x00000000   Number         0  nrf_dfu_flash.o ABSOLUTE
    ..\\..\\..\\..\\sdk_components\\libraries\\bootloader\\dfu\\nrf_dfu_mbr.c 0x00000000   Number         0  nrf_dfu_mbr.o ABSOLUTE
    ..\\..\\..\\..\\sdk_components\\libraries\\bootloader\\dfu\\nrf_dfu_settings.c 0x00000000   Number         0  nrf_dfu_settings.o ABSOLUTE
    ..\\..\\..\\..\\sdk_components\\libraries\\bootloader\\dfu\\nrf_dfu_transport.c 0x00000000   Number         0  nrf_dfu_transport.o ABSOLUTE
    ..\\..\\..\\..\\sdk_components\\libraries\\bootloader\\dfu\\nrf_dfu_utils.c 0x00000000   Number         0  nrf_dfu_utils.o ABSOLUTE
    ..\\..\\..\\..\\sdk_components\\libraries\\bootloader\\nrf_bootloader.c 0x00000000   Number         0  nrf_bootloader.o ABSOLUTE
    ..\\..\\..\\..\\sdk_components\\libraries\\bootloader\\nrf_bootloader_app_start.c 0x00000000   Number         0  nrf_bootloader_app_start.o ABSOLUTE
    ..\\..\\..\\..\\sdk_components\\libraries\\bootloader\\nrf_bootloader_info.c 0x00000000   Number         0  nrf_bootloader_info.o ABSOLUTE
    ..\\..\\..\\..\\sdk_components\\libraries\\crypto\\nrf_crypto.c 0x00000000   Number         0  nrf_crypto.o ABSOLUTE
    ..\\..\\..\\..\\sdk_components\\libraries\\ecc\\ecc.c 0x00000000   Number         0  ecc.o ABSOLUTE
    ..\\..\\..\\..\\sdk_components\\libraries\\fifo\\app_fifo.c 0x00000000   Number         0  app_fifo.o ABSOLUTE
    ..\\..\\..\\..\\sdk_components\\libraries\\fstorage\\fstorage.c 0x00000000   Number         0  fstorage.o ABSOLUTE
    ..\\..\\..\\..\\sdk_components\\libraries\\scheduler\\app_scheduler.c 0x00000000   Number         0  app_scheduler.o ABSOLUTE
    ..\\..\\..\\..\\sdk_components\\libraries\\sha256\\sha256.c 0x00000000   Number         0  sha256.o ABSOLUTE
    ..\\..\\..\\..\\sdk_components\\libraries\\timer\\app_timer.c 0x00000000   Number         0  app_timer.o ABSOLUTE
    ..\\..\\..\\..\\sdk_components\\libraries\\timer\\app_timer_appsh.c 0x00000000   Number         0  app_timer_appsh.o ABSOLUTE
    ..\\..\\..\\..\\sdk_components\\libraries\\util\\app_error_weak.c 0x00000000   Number         0  app_error_weak.o ABSOLUTE
    ..\\..\\..\\..\\sdk_components\\libraries\\util\\app_util_platform.c 0x00000000   Number         0  app_util_platform.o ABSOLUTE
    ..\\..\\..\\..\\sdk_components\\libraries\\util\\nrf_assert.c 0x00000000   Number         0  nrf_assert.o ABSOLUTE
    ..\\..\\..\\..\\sdk_components\\softdevice\\common\\softdevice_handler\\softdevice_handler.c 0x00000000   Number         0  softdevice_handler.o ABSOLUTE
    ..\\..\\..\\..\\sdk_components\\softdevice\\common\\softdevice_handler\\softdevice_handler_appsh.c 0x00000000   Number         0  softdevice_handler_appsh.o ABSOLUTE
    ..\\..\\..\\..\\source\\drivers\\drv_ext_light.c 0x00000000   Number         0  drv_ext_light.o ABSOLUTE
    ..\\..\\..\\..\\source\\drivers\\drv_sx1509.c 0x00000000   Number         0  drv_sx1509.o ABSOLUTE
    ..\\..\\..\\..\\source\\util\\twi_manager.c 0x00000000   Number         0  twi_manager.o ABSOLUTE
    ..\\..\\dfu_req_handling.c               0x00000000   Number         0  dfu_req_handling.o ABSOLUTE
    ..\\..\\main.c                           0x00000000   Number         0  main.o ABSOLUTE
    RTE\Device\nRF52832_xxAA\arm_startup_nrf52.s 0x00000000   Number         0  arm_startup_nrf52.o ABSOLUTE
    RTE\Device\nRF52832_xxAA\system_nrf52.c  0x00000000   Number         0  system_nrf52.o ABSOLUTE
    RTE\\Device\\nRF52832_xxAA\\system_nrf52.c 0x00000000   Number         0  system_nrf52.o ABSOLUTE
    cdcmple.s                                0x00000000   Number         0  cdcmple.o ABSOLUTE
    cdrcmple.s                               0x00000000   Number         0  cdrcmple.o ABSOLUTE
    dc.s                                     0x00000000   Number         0  dc.o ABSOLUTE
    handlers.s                               0x00000000   Number         0  handlers.o ABSOLUTE
    init.s                                   0x00000000   Number         0  init.o ABSOLUTE
    uECC.c                                   0x00000000   Number         0  micro_ecc_lib_uECC.c.o ABSOLUTE
    wm4.0.6595695d65213d8b99dcc19df5fee711   0x00000000   Number         0  micro_ecc_lib_uECC.c.o ABSOLUTE
    wm4._default_types.h.15.933e8edd27a65e0b69af4a865eb623d2 0x00000000   Number         0  micro_ecc_lib_uECC.c.o ABSOLUTE
    wm4._intsup.h.10.35a45952db64d30146faa63a55c20c1c 0x00000000   Number         0  micro_ecc_lib_uECC.c.o ABSOLUTE
    wm4._stdint.h.10.f76354baea1c7088202064e6f3d4f5e3 0x00000000   Number         0  micro_ecc_lib_uECC.c.o ABSOLUTE
    wm4.asm_arm.inc.214.f9c3f96b49f7a5d989f94cf8e1ceba89 0x00000000   Number         0  micro_ecc_lib_uECC.c.o ABSOLUTE
    wm4.asm_arm.inc.4.dfec34a05ba45d75cbee2d5e06b55b4e 0x00000000   Number         0  micro_ecc_lib_uECC.c.o ABSOLUTE
    wm4.asm_arm_mult_square_umaal.inc.4.c2e97a2f1d7d7b2ebe8d0dcdc38e8601 0x00000000   Number         0  micro_ecc_lib_uECC.c.o ABSOLUTE
    wm4.curvespecific.inc.4.2d2cb7d102145c8907bc83ada341adf1 0x00000000   Number         0  micro_ecc_lib_uECC.c.o ABSOLUTE
    wm4.features.h.22.2e382148a0560adabf236cddd4e880f4 0x00000000   Number         0  micro_ecc_lib_uECC.c.o ABSOLUTE
    wm4.stdint.h.23.373a9d32a9e4c2e88fd347156532d281 0x00000000   Number         0  micro_ecc_lib_uECC.c.o ABSOLUTE
    wm4.types.h.4.68c95426d679a2e4709b8043a29e6d1c 0x00000000   Number         0  micro_ecc_lib_uECC.c.o ABSOLUTE
    wm4.uECC.h.11.60fa50ed442a0ab5b345a0b6c59b855f 0x00000000   Number         0  micro_ecc_lib_uECC.c.o ABSOLUTE
    RESET                                    0x00075000   Section     1024  arm_startup_nrf52.o(RESET)
    .ARM.Collect$$$$00000000                 0x00075400   Section        0  entry.o(.ARM.Collect$$$$00000000)
    .ARM.Collect$$$$00000001                 0x00075400   Section        4  entry2.o(.ARM.Collect$$$$00000001)
    .ARM.Collect$$$$00000004                 0x00075404   Section        4  entry5.o(.ARM.Collect$$$$00000004)
    .ARM.Collect$$$$00000008                 0x00075408   Section        0  entry7b.o(.ARM.Collect$$$$00000008)
    .ARM.Collect$$$$0000000A                 0x00075408   Section        0  entry8b.o(.ARM.Collect$$$$0000000A)
    .ARM.Collect$$$$0000000B                 0x00075408   Section        8  entry9a.o(.ARM.Collect$$$$0000000B)
    .ARM.Collect$$$$0000000D                 0x00075410   Section        0  entry10a.o(.ARM.Collect$$$$0000000D)
    .ARM.Collect$$$$0000000F                 0x00075410   Section        0  entry11a.o(.ARM.Collect$$$$0000000F)
    .ARM.Collect$$$$00002712                 0x00075410   Section        4  entry2.o(.ARM.Collect$$$$00002712)
    __lit__00000000                          0x00075410   Data           4  entry2.o(.ARM.Collect$$$$00002712)
    .emb_text                                0x00075414   Section       52  nrf_bootloader_app_start.o(.emb_text)
    $v0                                      0x00075414   Number         0  nrf_bootloader_app_start.o(.emb_text)
    .text                                    0x00075448   Section       36  arm_startup_nrf52.o(.text)
    $v0                                      0x00075448   Number         0  arm_startup_nrf52.o(.text)
    .text                                    0x0007546c   Section        0  uldiv.o(.text)
    .text                                    0x000754ce   Section        0  llshl.o(.text)
    .text                                    0x000754ec   Section        0  memcpya.o(.text)
    .text                                    0x00075510   Section        0  memseta.o(.text)
    .text                                    0x00075534   Section        0  memcmp.o(.text)
    .text                                    0x0007554e   Section        0  strcpy.o(.text)
    .text                                    0x00075560   Section        0  dfixui.o(.text)
    .text                                    0x00075592   Section        0  f2d.o(.text)
    .text                                    0x000755b8   Section        0  llushr.o(.text)
    .text                                    0x000755d8   Section        0  dadd.o(.text)
    .text                                    0x000755d8   Section        0  iusefp.o(.text)
    .text                                    0x00075728   Section        0  drnd.o(.text)
    .text                                    0x000757b0   Section       48  cdcmple.o(.text)
    .text                                    0x000757e0   Section       48  cdrcmple.o(.text)
    .text                                    0x00075810   Section       36  init.o(.text)
    .text                                    0x00075834   Section        0  llsshr.o(.text)
    .text                                    0x00075858   Section        0  depilogue.o(.text)
    [Anonymous Symbol]                       0x00075912   Section        0  micro_ecc_lib_uECC.c.o(.text.XYcZ_add)
    XYcZ_add                                 0x00075913   Thumb Code   202  micro_ecc_lib_uECC.c.o(.text.XYcZ_add)
    [Anonymous Symbol]                       0x000759dc   Section        0  micro_ecc_lib_uECC.c.o(.text.apply_z)
    apply_z                                  0x000759dd   Thumb Code    62  micro_ecc_lib_uECC.c.o(.text.apply_z)
    [Anonymous Symbol]                       0x00075a1a   Section        0  micro_ecc_lib_uECC.c.o(.text.bcopy)
    bcopy                                    0x00075a1b   Thumb Code    12  micro_ecc_lib_uECC.c.o(.text.bcopy)
    [Anonymous Symbol]                       0x00075a26   Section        0  micro_ecc_lib_uECC.c.o(.text.bits2int)
    bits2int                                 0x00075a27   Thumb Code   136  micro_ecc_lib_uECC.c.o(.text.bits2int)
    [Anonymous Symbol]                       0x00075aae   Section        0  micro_ecc_lib_uECC.c.o(.text.double_jacobian_default)
    double_jacobian_default                  0x00075aaf   Thumb Code   340  micro_ecc_lib_uECC.c.o(.text.double_jacobian_default)
    [Anonymous Symbol]                       0x00075c04   Section        0  micro_ecc_lib_uECC.c.o(.text.uECC_secp256r1)
    [Anonymous Symbol]                       0x00075c0c   Section        0  micro_ecc_lib_uECC.c.o(.text.uECC_verify)
    [Anonymous Symbol]                       0x00075ee0   Section        0  micro_ecc_lib_uECC.c.o(.text.uECC_vli_add)
    [Anonymous Symbol]                       0x00075f38   Section        0  micro_ecc_lib_uECC.c.o(.text.uECC_vli_clear)
    [Anonymous Symbol]                       0x00075f50   Section        0  micro_ecc_lib_uECC.c.o(.text.uECC_vli_cmp_unsafe)
    uECC_vli_cmp_unsafe                      0x00075f51   Thumb Code    42  micro_ecc_lib_uECC.c.o(.text.uECC_vli_cmp_unsafe)
    [Anonymous Symbol]                       0x00075f7a   Section        0  micro_ecc_lib_uECC.c.o(.text.uECC_vli_equal)
    [Anonymous Symbol]                       0x00075fa4   Section        0  micro_ecc_lib_uECC.c.o(.text.uECC_vli_isZero)
    [Anonymous Symbol]                       0x00075fc4   Section        0  micro_ecc_lib_uECC.c.o(.text.uECC_vli_mmod)
    [Anonymous Symbol]                       0x00076100   Section        0  micro_ecc_lib_uECC.c.o(.text.uECC_vli_modAdd)
    [Anonymous Symbol]                       0x00076132   Section        0  micro_ecc_lib_uECC.c.o(.text.uECC_vli_modInv)
    [Anonymous Symbol]                       0x0007623e   Section        0  micro_ecc_lib_uECC.c.o(.text.uECC_vli_modMult)
    [Anonymous Symbol]                       0x00076262   Section        0  micro_ecc_lib_uECC.c.o(.text.uECC_vli_modMult_fast)
    [Anonymous Symbol]                       0x00076282   Section        0  micro_ecc_lib_uECC.c.o(.text.uECC_vli_modSquare_fast)
    [Anonymous Symbol]                       0x000762a2   Section        0  micro_ecc_lib_uECC.c.o(.text.uECC_vli_modSub)
    [Anonymous Symbol]                       0x000762c6   Section        0  micro_ecc_lib_uECC.c.o(.text.uECC_vli_mult)
    [Anonymous Symbol]                       0x000765d8   Section        0  micro_ecc_lib_uECC.c.o(.text.uECC_vli_numBits)
    [Anonymous Symbol]                       0x0007661c   Section        0  micro_ecc_lib_uECC.c.o(.text.uECC_vli_rshift1)
    [Anonymous Symbol]                       0x00076636   Section        0  micro_ecc_lib_uECC.c.o(.text.uECC_vli_set)
    [Anonymous Symbol]                       0x00076650   Section        0  micro_ecc_lib_uECC.c.o(.text.uECC_vli_square)
    [Anonymous Symbol]                       0x000768e0   Section        0  micro_ecc_lib_uECC.c.o(.text.uECC_vli_sub)
    [Anonymous Symbol]                       0x00076940   Section        0  micro_ecc_lib_uECC.c.o(.text.uECC_vli_testBit)
    [Anonymous Symbol]                       0x00076954   Section        0  micro_ecc_lib_uECC.c.o(.text.vli_mmod_fast_secp256r1)
    vli_mmod_fast_secp256r1                  0x00076955   Thumb Code   432  micro_ecc_lib_uECC.c.o(.text.vli_mmod_fast_secp256r1)
    [Anonymous Symbol]                       0x00076b04   Section        0  micro_ecc_lib_uECC.c.o(.text.vli_modInv_update)
    vli_modInv_update                        0x00076b05   Thumb Code    58  micro_ecc_lib_uECC.c.o(.text.vli_modInv_update)
    [Anonymous Symbol]                       0x00076b3e   Section        0  micro_ecc_lib_uECC.c.o(.text.x_side_default)
    x_side_default                           0x00076b3f   Thumb Code    90  micro_ecc_lib_uECC.c.o(.text.x_side_default)
    i.NVIC_ClearPendingIRQ                   0x00076b98   Section        0  app_timer.o(i.NVIC_ClearPendingIRQ)
    NVIC_ClearPendingIRQ                     0x00076b99   Thumb Code    22  app_timer.o(i.NVIC_ClearPendingIRQ)
    i.NVIC_EnableIRQ                         0x00076bae   Section        0  app_timer.o(i.NVIC_EnableIRQ)
    NVIC_EnableIRQ                           0x00076baf   Thumb Code    22  app_timer.o(i.NVIC_EnableIRQ)
    i.NVIC_SetPendingIRQ                     0x00076bc4   Section        0  app_timer.o(i.NVIC_SetPendingIRQ)
    NVIC_SetPendingIRQ                       0x00076bc5   Thumb Code    22  app_timer.o(i.NVIC_SetPendingIRQ)
    i.NVIC_SetPriority                       0x00076bda   Section        0  app_timer.o(i.NVIC_SetPriority)
    NVIC_SetPriority                         0x00076bdb   Thumb Code    32  app_timer.o(i.NVIC_SetPriority)
    i.NVIC_SystemReset                       0x00076bfc   Section        0  main.o(i.NVIC_SystemReset)
    NVIC_SystemReset                         0x00076bfd   Thumb Code    26  main.o(i.NVIC_SystemReset)
    i.RTC1_IRQHandler                        0x00076c20   Section        0  app_timer.o(i.RTC1_IRQHandler)
    i.SEGGER_RTT_Write                       0x00076c44   Section        0  segger_rtt.o(i.SEGGER_RTT_Write)
    i.SEGGER_RTT_WriteNoLock                 0x00076c68   Section        0  segger_rtt.o(i.SEGGER_RTT_WriteNoLock)
    i.SEGGER_RTT_printf                      0x00076cc4   Section        0  segger_rtt_printf.o(i.SEGGER_RTT_printf)
    i.SEGGER_RTT_vprintf                     0x00076cda   Section        0  segger_rtt_printf.o(i.SEGGER_RTT_vprintf)
    i.SPIM0_SPIS0_TWIM0_TWIS0_SPI0_TWI0_IRQHandler 0x00076e70   Section        0  nrf_drv_twi.o(i.SPIM0_SPIS0_TWIM0_TWIS0_SPI0_TWI0_IRQHandler)
    i.SWI0_EGU0_IRQHandler                   0x00076e80   Section        0  app_timer.o(i.SWI0_EGU0_IRQHandler)
    i.SWI2_EGU2_IRQHandler                   0x00076e84   Section        0  softdevice_handler.o(i.SWI2_EGU2_IRQHandler)
    i.SystemInit                             0x00076ea8   Section        0  system_nrf52.o(i.SystemInit)
    i._DoInit                                0x00077144   Section        0  segger_rtt.o(i._DoInit)
    _DoInit                                  0x00077145   Thumb Code    76  segger_rtt.o(i._DoInit)
    i._GetAvailWriteSpace                    0x000771ac   Section        0  segger_rtt.o(i._GetAvailWriteSpace)
    _GetAvailWriteSpace                      0x000771ad   Thumb Code    22  segger_rtt.o(i._GetAvailWriteSpace)
    i._PrintInt                              0x000771c4   Section        0  segger_rtt_printf.o(i._PrintInt)
    _PrintInt                                0x000771c5   Thumb Code   198  segger_rtt_printf.o(i._PrintInt)
    i._PrintUnsigned                         0x0007728c   Section        0  segger_rtt_printf.o(i._PrintUnsigned)
    _PrintUnsigned                           0x0007728d   Thumb Code   206  segger_rtt_printf.o(i._PrintUnsigned)
    i._StoreChar                             0x00077360   Section        0  segger_rtt_printf.o(i._StoreChar)
    _StoreChar                               0x00077361   Thumb Code    62  segger_rtt_printf.o(i._StoreChar)
    i._WriteBlocking                         0x0007739e   Section        0  segger_rtt.o(i._WriteBlocking)
    _WriteBlocking                           0x0007739f   Thumb Code    90  segger_rtt.o(i._WriteBlocking)
    i._WriteNoCheck                          0x000773f8   Section        0  segger_rtt.o(i._WriteNoCheck)
    _WriteNoCheck                            0x000773f9   Thumb Code    62  segger_rtt.o(i._WriteNoCheck)
    i.__hardfp_round                         0x00077438   Section        0  round.o(i.__hardfp_round)
    i.__scatterload_copy                     0x00077518   Section       14  handlers.o(i.__scatterload_copy)
    i.__scatterload_null                     0x00077526   Section        2  handlers.o(i.__scatterload_null)
    i.__scatterload_zeroinit                 0x00077528   Section       14  handlers.o(i.__scatterload_zeroinit)
    i.__sd_nvic_app_accessible_irq           0x00077538   Section        0  softdevice_handler.o(i.__sd_nvic_app_accessible_irq)
    __sd_nvic_app_accessible_irq             0x00077539   Thumb Code    32  softdevice_handler.o(i.__sd_nvic_app_accessible_irq)
    i.adv_data_encode                        0x0007755c   Section        0  ble_advdata.o(i.adv_data_encode)
    i.advertising_start                      0x000776e0   Section        0  nrf_ble_dfu.o(i.advertising_start)
    advertising_start                        0x000776e1   Thumb Code   124  nrf_ble_dfu.o(i.advertising_start)
    i.app_error_fault_handler                0x00077760   Section        0  main.o(i.app_error_fault_handler)
    i.app_error_handler_bare                 0x00077764   Section        0  main.o(i.app_error_handler_bare)
    i.app_sched_event_put                    0x00077768   Section        0  app_scheduler.o(i.app_sched_event_put)
    i.app_sched_execute                      0x00077808   Section        0  app_scheduler.o(i.app_sched_execute)
    i.app_sched_init                         0x00077848   Section        0  app_scheduler.o(i.app_sched_init)
    i.app_timer_create                       0x00077874   Section        0  app_timer.o(i.app_timer_create)
    i.app_timer_evt_get                      0x00077898   Section        0  app_timer_appsh.o(i.app_timer_evt_get)
    app_timer_evt_get                        0x00077899   Thumb Code    24  app_timer_appsh.o(i.app_timer_evt_get)
    i.app_timer_evt_schedule                 0x000778b0   Section        0  app_timer_appsh.o(i.app_timer_evt_schedule)
    i.app_timer_init                         0x000778c8   Section        0  app_timer.o(i.app_timer_init)
    i.app_timer_start                        0x00077938   Section        0  app_timer.o(i.app_timer_start)
    i.app_timer_stop                         0x000779c0   Section        0  app_timer.o(i.app_timer_stop)
    i.app_util_critical_region_enter         0x000779e0   Section        0  app_util_platform.o(i.app_util_critical_region_enter)
    i.app_util_critical_region_exit          0x00077a28   Section        0  app_util_platform.o(i.app_util_critical_region_exit)
    i.ble_advdata_set                        0x00077a5c   Section        0  ble_advdata.o(i.ble_advdata_set)
    i.ble_conn_params_init                   0x00077ac4   Section        0  ble_conn_params.o(i.ble_conn_params_init)
    i.ble_conn_params_on_ble_evt             0x00077b1c   Section        0  ble_conn_params.o(i.ble_conn_params_on_ble_evt)
    i.ble_conn_params_stop                   0x00077ba0   Section        0  ble_conn_params.o(i.ble_conn_params_stop)
    i.ble_device_addr_encode                 0x00077bac   Section        0  ble_advdata.o(i.ble_device_addr_encode)
    ble_device_addr_encode                   0x00077bad   Thumb Code    96  ble_advdata.o(i.ble_device_addr_encode)
    i.ble_dfu_init                           0x00077c0c   Section        0  nrf_ble_dfu.o(i.ble_dfu_init)
    i.ble_dfu_transport_close                0x00077c78   Section        0  nrf_ble_dfu.o(i.ble_dfu_transport_close)
    i.ble_dfu_transport_init                 0x00077ccc   Section        0  nrf_ble_dfu.o(i.ble_dfu_transport_init)
    i.ble_evt_dispatch                       0x00077d8c   Section        0  nrf_ble_dfu.o(i.ble_evt_dispatch)
    ble_evt_dispatch                         0x00077d8d   Thumb Code    18  nrf_ble_dfu.o(i.ble_evt_dispatch)
    i.ble_srv_is_notification_enabled        0x00077d9e   Section        0  ble_srv_common.o(i.ble_srv_is_notification_enabled)
    i.buf_read                               0x00077da6   Section        0  pb_decode.o(i.buf_read)
    buf_read                                 0x00077da7   Thumb Code    28  pb_decode.o(i.buf_read)
    i.check_config                           0x00077dc4   Section        0  fstorage.o(i.check_config)
    check_config                             0x00077dc5   Thumb Code    22  fstorage.o(i.check_config)
    i.compare_reg_update                     0x00077de4   Section        0  app_timer.o(i.compare_reg_update)
    compare_reg_update                       0x00077de5   Thumb Code   160  app_timer.o(i.compare_reg_update)
    i.conn_int_encode                        0x00077e90   Section        0  ble_advdata.o(i.conn_int_encode)
    conn_int_encode                          0x00077e91   Thumb Code   136  ble_advdata.o(i.conn_int_encode)
    i.conn_params_error_handler              0x00077f18   Section        0  nrf_ble_dfu.o(i.conn_params_error_handler)
    conn_params_error_handler                0x00077f19   Thumb Code     4  nrf_ble_dfu.o(i.conn_params_error_handler)
    i.conn_params_negotiation                0x00077f1c   Section        0  ble_conn_params.o(i.conn_params_negotiation)
    conn_params_negotiation                  0x00077f1d   Thumb Code    78  ble_conn_params.o(i.conn_params_negotiation)
    i.crc32_compute                          0x00077f78   Section        0  crc32.o(i.crc32_compute)
    i.decode_callback_field                  0x00077fb4   Section        0  pb_decode.o(i.decode_callback_field)
    decode_callback_field                    0x00077fb5   Thumb Code   126  pb_decode.o(i.decode_callback_field)
    i.decode_field                           0x00078032   Section        0  pb_decode.o(i.decode_field)
    decode_field                             0x00078033   Thumb Code    26  pb_decode.o(i.decode_field)
    i.decode_static_field                    0x0007804c   Section        0  pb_decode.o(i.decode_static_field)
    decode_static_field                      0x0007804d   Thumb Code   220  pb_decode.o(i.decode_static_field)
    i.dfu_ctrl_pt_add                        0x0007812c   Section        0  nrf_ble_dfu.o(i.dfu_ctrl_pt_add)
    dfu_ctrl_pt_add                          0x0007812d   Thumb Code   132  nrf_ble_dfu.o(i.dfu_ctrl_pt_add)
    i.dfu_data_write_handler                 0x000781b0   Section        0  dfu_req_handling.o(i.dfu_data_write_handler)
    dfu_data_write_handler                   0x000781b1   Thumb Code    10  dfu_req_handling.o(i.dfu_data_write_handler)
    i.dfu_decode_commmand                    0x000781c0   Section        0  dfu_req_handling.o(i.dfu_decode_commmand)
    dfu_decode_commmand                      0x000781c1   Thumb Code    60  dfu_req_handling.o(i.dfu_decode_commmand)
    i.dfu_handle_prevalidate                 0x00078214   Section        0  dfu_req_handling.o(i.dfu_handle_prevalidate)
    dfu_handle_prevalidate                   0x00078215   Thumb Code   378  dfu_req_handling.o(i.dfu_handle_prevalidate)
    i.dfu_pkt_char_add                       0x000783a4   Section        0  nrf_ble_dfu.o(i.dfu_pkt_char_add)
    dfu_pkt_char_add                         0x000783a5   Thumb Code   130  nrf_ble_dfu.o(i.dfu_pkt_char_add)
    i.dfu_settings_write_callback            0x00078428   Section        0  nrf_dfu_settings.o(i.dfu_settings_write_callback)
    dfu_settings_write_callback              0x00078429   Thumb Code    18  nrf_dfu_settings.o(i.dfu_settings_write_callback)
    i.diff_above_limit                       0x00078440   Section        0  sx150x_led_drv_calc.o(i.diff_above_limit)
    diff_above_limit                         0x00078441   Thumb Code    76  sx150x_led_drv_calc.o(i.diff_above_limit)
    i.drv_ext_light_init                     0x00078494   Section        0  drv_ext_light.o(i.drv_ext_light_init)
    i.drv_ext_light_rgb_sequence             0x00078738   Section        0  drv_ext_light.o(i.drv_ext_light_rgb_sequence)
    i.drv_sx1509_clock_modify                0x000787bc   Section        0  drv_sx1509.o(i.drv_sx1509_clock_modify)
    i.drv_sx1509_close                       0x000787ec   Section        0  drv_sx1509.o(i.drv_sx1509_close)
    i.drv_sx1509_data_modify                 0x00078810   Section        0  drv_sx1509.o(i.drv_sx1509_data_modify)
    i.drv_sx1509_dir_modify                  0x0007883e   Section        0  drv_sx1509.o(i.drv_sx1509_dir_modify)
    i.drv_sx1509_init                        0x0007886c   Section        0  drv_sx1509.o(i.drv_sx1509_init)
    i.drv_sx1509_inpbufdisable_modify        0x00078878   Section        0  drv_sx1509.o(i.drv_sx1509_inpbufdisable_modify)
    i.drv_sx1509_leddriverenable_modify      0x000788a6   Section        0  drv_sx1509.o(i.drv_sx1509_leddriverenable_modify)
    i.drv_sx1509_misc_modify                 0x000788d4   Section        0  drv_sx1509.o(i.drv_sx1509_misc_modify)
    i.drv_sx1509_onoffcfgx_modify            0x000788f4   Section        0  drv_sx1509.o(i.drv_sx1509_onoffcfgx_modify)
    i.drv_sx1509_open                        0x00078958   Section        0  drv_sx1509.o(i.drv_sx1509_open)
    i.drv_sx1509_opendrain_modify            0x00078984   Section        0  drv_sx1509.o(i.drv_sx1509_opendrain_modify)
    i.drv_sx1509_pulldown_modify             0x000789b2   Section        0  drv_sx1509.o(i.drv_sx1509_pulldown_modify)
    i.drv_sx1509_pullup_modify               0x000789e0   Section        0  drv_sx1509.o(i.drv_sx1509_pullup_modify)
    i.drv_sx1509_reset                       0x00078a10   Section        0  drv_sx1509.o(i.drv_sx1509_reset)
    i.drv_sx1509_risefallcfgx_modify         0x00078a44   Section        0  drv_sx1509.o(i.drv_sx1509_risefallcfgx_modify)
    i.ecc_p256_verify                        0x00078a92   Section        0  ecc.o(i.ecc_p256_verify)
    i.elapsed_ticks_acquire                  0x00078adc   Section        0  app_timer.o(i.elapsed_ticks_acquire)
    elapsed_ticks_acquire                    0x00078add   Thumb Code    58  app_timer.o(i.elapsed_ticks_acquire)
    i.fs_erase                               0x00078b1c   Section        0  fstorage.o(i.fs_erase)
    i.fs_evt_handler                         0x00078b90   Section        0  nrf_dfu_flash.o(i.fs_evt_handler)
    fs_evt_handler                           0x00078b91   Thumb Code    34  nrf_dfu_flash.o(i.fs_evt_handler)
    i.fs_fake_init                           0x00078bb8   Section        0  fstorage.o(i.fs_fake_init)
    i.fs_store                               0x00078bcc   Section        0  fstorage.o(i.fs_store)
    i.fs_sys_event_handler                   0x00078c4c   Section        0  fstorage.o(i.fs_sys_event_handler)
    i.gap_params_init                        0x00078cb4   Section        0  nrf_ble_dfu.o(i.gap_params_init)
    gap_params_init                          0x00078cb5   Thumb Code   100  nrf_ble_dfu.o(i.gap_params_init)
    i.intern_softdevice_events_execute       0x00078d24   Section        0  softdevice_handler.o(i.intern_softdevice_events_execute)
    i.ioext_osc_start_stop                   0x00078da0   Section        0  drv_ext_light.o(i.ioext_osc_start_stop)
    ioext_osc_start_stop                     0x00078da1   Thumb Code    98  drv_ext_light.o(i.ioext_osc_start_stop)
    i.irq_handler_twi                        0x00078e08   Section        0  nrf_drv_twi.o(i.irq_handler_twi)
    irq_handler_twi                          0x00078e09   Thumb Code   182  nrf_drv_twi.o(i.irq_handler_twi)
    i.is_conn_params_ok                      0x00078ec0   Section        0  ble_conn_params.o(i.is_conn_params_ok)
    is_conn_params_ok                        0x00078ec1   Thumb Code    24  ble_conn_params.o(i.is_conn_params_ok)
    i.is_word_aligned                        0x00078edc   Section        0  ecc.o(i.is_word_aligned)
    is_word_aligned                          0x00078edd   Thumb Code    12  ecc.o(i.is_word_aligned)
    i.iter_from_extension                    0x00078ee8   Section        0  pb_decode.o(i.iter_from_extension)
    iter_from_extension                      0x00078ee9   Thumb Code    46  pb_decode.o(i.iter_from_extension)
    i.list_deletions_handler                 0x00078f18   Section        0  app_timer.o(i.list_deletions_handler)
    list_deletions_handler                   0x00078f19   Thumb Code   158  app_timer.o(i.list_deletions_handler)
    i.list_insertions_handler                0x00078fc0   Section        0  app_timer.o(i.list_insertions_handler)
    list_insertions_handler                  0x00078fc1   Thumb Code   174  app_timer.o(i.list_insertions_handler)
    i.m_io_ext_oper_mode_chk                 0x00079078   Section        0  drv_ext_light.o(i.m_io_ext_oper_mode_chk)
    m_io_ext_oper_mode_chk                   0x00079079   Thumb Code   104  drv_ext_light.o(i.m_io_ext_oper_mode_chk)
    i.m_ioext_cmd_process                    0x000790e0   Section        0  drv_ext_light.o(i.m_ioext_cmd_process)
    m_ioext_cmd_process                      0x000790e1   Thumb Code   638  drv_ext_light.o(i.m_ioext_cmd_process)
    i.m_ioext_color_select_cmd_send          0x00079394   Section        0  drv_ext_light.o(i.m_ioext_color_select_cmd_send)
    m_ioext_color_select_cmd_send            0x00079395   Thumb Code   204  drv_ext_light.o(i.m_ioext_color_select_cmd_send)
    i.m_ioext_led_drv_ctrl                   0x00079498   Section        0  drv_ext_light.o(i.m_ioext_led_drv_ctrl)
    m_ioext_led_drv_ctrl                     0x00079499   Thumb Code   292  drv_ext_light.o(i.m_ioext_led_drv_ctrl)
    i.m_ioext_osc_status_change              0x000795f4   Section        0  drv_ext_light.o(i.m_ioext_osc_status_change)
    m_ioext_osc_status_change                0x000795f5   Thumb Code   100  drv_ext_light.o(i.m_ioext_osc_status_change)
    i.m_is_monochrome_light                  0x00079690   Section        0  drv_ext_light.o(i.m_is_monochrome_light)
    m_is_monochrome_light                    0x00079691   Thumb Code    18  drv_ext_light.o(i.m_is_monochrome_light)
    i.m_is_rgb_light                         0x000796a8   Section        0  drv_ext_light.o(i.m_is_rgb_light)
    m_is_rgb_light                           0x000796a9   Thumb Code    16  drv_ext_light.o(i.m_is_rgb_light)
    i.m_led_driver_sequence_restart          0x000796bc   Section        0  drv_ext_light.o(i.m_led_driver_sequence_restart)
    m_led_driver_sequence_restart            0x000796bd   Thumb Code    54  drv_ext_light.o(i.m_led_driver_sequence_restart)
    i.m_light_timer_handler                  0x00079724   Section        0  drv_ext_light.o(i.m_light_timer_handler)
    m_light_timer_handler                    0x00079725   Thumb Code   260  drv_ext_light.o(i.m_light_timer_handler)
    i.m_onoffcfgx_base_addr_get              0x0007982c   Section        0  drv_sx1509.o(i.m_onoffcfgx_base_addr_get)
    m_onoffcfgx_base_addr_get                0x0007982d   Thumb Code    48  drv_sx1509.o(i.m_onoffcfgx_base_addr_get)
    i.m_osc_on_margin_calculate              0x0007985c   Section        0  drv_ext_light.o(i.m_osc_on_margin_calculate)
    m_osc_on_margin_calculate                0x0007985d   Thumb Code    16  drv_ext_light.o(i.m_osc_on_margin_calculate)
    i.m_pin_within_range_check               0x0007986c   Section        0  drv_ext_light.o(i.m_pin_within_range_check)
    m_pin_within_range_check                 0x0007986d   Thumb Code    12  drv_ext_light.o(i.m_pin_within_range_check)
    i.m_port_mask_create                     0x00079878   Section        0  drv_ext_light.o(i.m_port_mask_create)
    m_port_mask_create                       0x00079879   Thumb Code   126  drv_ext_light.o(i.m_port_mask_create)
    i.m_risefallcfgx_base_addr_get           0x000798fc   Section        0  drv_sx1509.o(i.m_risefallcfgx_base_addr_get)
    m_risefallcfgx_base_addr_get             0x000798fd   Thumb Code    30  drv_sx1509.o(i.m_risefallcfgx_base_addr_get)
    i.main                                   0x0007991c   Section        0  main.o(i.main)
    i.manuf_specific_data_encode             0x0007996c   Section        0  ble_advdata.o(i.manuf_specific_data_encode)
    manuf_specific_data_encode               0x0007996d   Thumb Code   100  ble_advdata.o(i.manuf_specific_data_encode)
    i.multi_byte_register_set                0x000799d0   Section        0  drv_sx1509.o(i.multi_byte_register_set)
    multi_byte_register_set                  0x000799d1   Thumb Code    40  drv_sx1509.o(i.multi_byte_register_set)
    i.name_encode                            0x000799fc   Section        0  ble_advdata.o(i.name_encode)
    name_encode                              0x000799fd   Thumb Code   156  ble_advdata.o(i.name_encode)
    i.nrf_bootloader_app_start               0x00079a98   Section        0  nrf_bootloader_app_start.o(i.nrf_bootloader_app_start)
    i.nrf_bootloader_init                    0x00079ac2   Section        0  nrf_bootloader.o(i.nrf_bootloader_init)
    i.nrf_crypto_hash_compute                0x00079aca   Section        0  nrf_crypto.o(i.nrf_crypto_hash_compute)
    i.nrf_crypto_verify                      0x00079b16   Section        0  nrf_crypto.o(i.nrf_crypto_verify)
    i.nrf_delay_us                           0x00079b44   Section        0  dfu_req_handling.o(i.nrf_delay_us)
    nrf_delay_us                             0x00079b45   Thumb Code   132  dfu_req_handling.o(i.nrf_delay_us)
    i.nrf_delay_us                           0x00079bd0   Section        0  drv_sx1509.o(i.nrf_delay_us)
    nrf_delay_us                             0x00079bd1   Thumb Code   132  drv_sx1509.o(i.nrf_delay_us)
    i.nrf_delay_us                           0x00079c5c   Section        0  nrf_drv_twi.o(i.nrf_delay_us)
    nrf_delay_us                             0x00079c5d   Thumb Code   132  nrf_drv_twi.o(i.nrf_delay_us)
    i.nrf_delay_us                           0x00079ce8   Section        0  nrf_ble_dfu.o(i.nrf_delay_us)
    nrf_delay_us                             0x00079ce9   Thumb Code   132  nrf_ble_dfu.o(i.nrf_delay_us)
    i.nrf_delay_us                           0x00079d74   Section        0  nrf_dfu.o(i.nrf_delay_us)
    nrf_delay_us                             0x00079d75   Thumb Code   132  nrf_dfu.o(i.nrf_delay_us)
    i.nrf_delay_us                           0x00079e00   Section        0  app_timer.o(i.nrf_delay_us)
    nrf_delay_us                             0x00079e01   Thumb Code   132  app_timer.o(i.nrf_delay_us)
    i.nrf_dfu_app_continue                   0x00079e8c   Section        0  nrf_dfu_utils.o(i.nrf_dfu_app_continue)
    nrf_dfu_app_continue                     0x00079e8d   Thumb Code   166  nrf_dfu_utils.o(i.nrf_dfu_app_continue)
    i.nrf_dfu_app_is_valid                   0x00079f38   Section        0  nrf_dfu_utils.o(i.nrf_dfu_app_is_valid)
    i.nrf_dfu_bl_continue                    0x00079f68   Section        0  nrf_dfu_utils.o(i.nrf_dfu_bl_continue)
    nrf_dfu_bl_continue                      0x00079f69   Thumb Code    60  nrf_dfu_utils.o(i.nrf_dfu_bl_continue)
    i.nrf_dfu_command_req                    0x00079fac   Section        0  dfu_req_handling.o(i.nrf_dfu_command_req)
    nrf_dfu_command_req                      0x00079fad   Thumb Code   256  dfu_req_handling.o(i.nrf_dfu_command_req)
    i.nrf_dfu_continue                       0x0007a0b8   Section        0  nrf_dfu_utils.o(i.nrf_dfu_continue)
    i.nrf_dfu_continue_bank                  0x0007a0ec   Section        0  nrf_dfu_utils.o(i.nrf_dfu_continue_bank)
    nrf_dfu_continue_bank                    0x0007a0ed   Thumb Code   114  nrf_dfu_utils.o(i.nrf_dfu_continue_bank)
    i.nrf_dfu_data_req                       0x0007a164   Section        0  dfu_req_handling.o(i.nrf_dfu_data_req)
    nrf_dfu_data_req                         0x0007a165   Thumb Code   594  dfu_req_handling.o(i.nrf_dfu_data_req)
    i.nrf_dfu_enter_check                    0x0007a3c8   Section        0  nrf_dfu.o(i.nrf_dfu_enter_check)
    i.nrf_dfu_find_cache                     0x0007a404   Section        0  nrf_dfu_utils.o(i.nrf_dfu_find_cache)
    i.nrf_dfu_flash_erase                    0x0007a470   Section        0  nrf_dfu_flash.o(i.nrf_dfu_flash_erase)
    i.nrf_dfu_flash_init                     0x0007a508   Section        0  nrf_dfu_flash.o(i.nrf_dfu_flash_init)
    i.nrf_dfu_flash_store                    0x0007a534   Section        0  nrf_dfu_flash.o(i.nrf_dfu_flash_store)
    i.nrf_dfu_init                           0x0007a5c0   Section        0  nrf_dfu.o(i.nrf_dfu_init)
    i.nrf_dfu_invalidate_bank                0x0007a668   Section        0  nrf_dfu_utils.o(i.nrf_dfu_invalidate_bank)
    nrf_dfu_invalidate_bank                  0x0007a669   Thumb Code    20  nrf_dfu_utils.o(i.nrf_dfu_invalidate_bank)
    i.nrf_dfu_mbr_compare                    0x0007a680   Section        0  nrf_dfu_mbr.o(i.nrf_dfu_mbr_compare)
    i.nrf_dfu_mbr_copy_bl                    0x0007a69c   Section        0  nrf_dfu_mbr.o(i.nrf_dfu_mbr_copy_bl)
    i.nrf_dfu_mbr_copy_sd                    0x0007a6b4   Section        0  nrf_dfu_mbr.o(i.nrf_dfu_mbr_copy_sd)
    i.nrf_dfu_mbr_init_sd                    0x0007a6d8   Section        0  nrf_dfu_mbr.o(i.nrf_dfu_mbr_init_sd)
    i.nrf_dfu_postvalidate                   0x0007a6f0   Section        0  dfu_req_handling.o(i.nrf_dfu_postvalidate)
    nrf_dfu_postvalidate                     0x0007a6f1   Thumb Code   242  dfu_req_handling.o(i.nrf_dfu_postvalidate)
    i.nrf_dfu_req_handler_init               0x0007a7f8   Section        0  dfu_req_handling.o(i.nrf_dfu_req_handler_init)
    i.nrf_dfu_req_handler_on_req             0x0007a848   Section        0  dfu_req_handling.o(i.nrf_dfu_req_handler_on_req)
    i.nrf_dfu_sd_continue_impl               0x0007a888   Section        0  nrf_dfu_utils.o(i.nrf_dfu_sd_continue_impl)
    nrf_dfu_sd_continue_impl                 0x0007a889   Thumb Code   124  nrf_dfu_utils.o(i.nrf_dfu_sd_continue_impl)
    i.nrf_dfu_settings_calculate_crc         0x0007a908   Section        0  nrf_dfu_settings.o(i.nrf_dfu_settings_calculate_crc)
    i.nrf_dfu_settings_init                  0x0007a918   Section        0  nrf_dfu_settings.o(i.nrf_dfu_settings_init)
    i.nrf_dfu_settings_write                 0x0007a964   Section        0  nrf_dfu_settings.o(i.nrf_dfu_settings_write)
    i.nrf_dfu_transports_close               0x0007a9c0   Section        0  nrf_dfu_transport.o(i.nrf_dfu_transports_close)
    i.nrf_dfu_transports_init                0x0007a9ec   Section        0  nrf_dfu_transport.o(i.nrf_dfu_transports_init)
    i.nrf_dfu_wait                           0x0007aa18   Section        0  nrf_dfu.o(i.nrf_dfu_wait)
    i.nrf_drv_common_irq_enable              0x0007aa1c   Section        0  nrf_drv_common.o(i.nrf_drv_common_irq_enable)
    i.nrf_drv_twi_disable                    0x0007aa54   Section        0  nrf_drv_twi.o(i.nrf_drv_twi_disable)
    i.nrf_drv_twi_enable                     0x0007aa84   Section        0  nrf_drv_twi.o(i.nrf_drv_twi_enable)
    i.nrf_drv_twi_init                       0x0007aaa4   Section        0  nrf_drv_twi.o(i.nrf_drv_twi_init)
    i.nrf_drv_twi_rx                         0x0007ab30   Section        0  nrf_drv_twi.o(i.nrf_drv_twi_rx)
    i.nrf_drv_twi_tx                         0x0007ab54   Section        0  nrf_drv_twi.o(i.nrf_drv_twi_tx)
    i.nrf_drv_twi_uninit                     0x0007ab78   Section        0  nrf_drv_twi.o(i.nrf_drv_twi_uninit)
    i.nrf_drv_twi_xfer                       0x0007abe4   Section        0  nrf_drv_twi.o(i.nrf_drv_twi_xfer)
    i.nrf_gpio_cfg                           0x0007ac10   Section        0  main.o(i.nrf_gpio_cfg)
    nrf_gpio_cfg                             0x0007ac11   Thumb Code    34  main.o(i.nrf_gpio_cfg)
    i.nrf_gpio_pin_set                       0x0007ac34   Section        0  nrf_drv_twi.o(i.nrf_gpio_pin_set)
    nrf_gpio_pin_set                         0x0007ac35   Thumb Code    10  nrf_drv_twi.o(i.nrf_gpio_pin_set)
    i.nrf_nvmc_page_erase                    0x0007ac44   Section        0  nrf_nvmc.o(i.nrf_nvmc_page_erase)
    i.nrf_nvmc_write_words                   0x0007ac74   Section        0  nrf_nvmc.o(i.nrf_nvmc_write_words)
    i.nrf_twi_event_check                    0x0007acb0   Section        0  nrf_drv_twi.o(i.nrf_twi_event_check)
    nrf_twi_event_check                      0x0007acb1   Thumb Code    10  nrf_drv_twi.o(i.nrf_twi_event_check)
    i.nrf_twi_event_clear                    0x0007acba   Section        0  nrf_drv_twi.o(i.nrf_twi_event_clear)
    nrf_twi_event_clear                      0x0007acbb   Thumb Code    12  nrf_drv_twi.o(i.nrf_twi_event_clear)
    i.on_ble_evt                             0x0007acc8   Section        0  nrf_ble_dfu.o(i.on_ble_evt)
    on_ble_evt                               0x0007acc9   Thumb Code   206  nrf_ble_dfu.o(i.on_ble_evt)
    i.on_ctrl_pt_write                       0x0007ada0   Section        0  nrf_ble_dfu.o(i.on_ctrl_pt_write)
    on_ctrl_pt_write                         0x0007ada1   Thumb Code   242  nrf_ble_dfu.o(i.on_ctrl_pt_write)
    i.on_dfu_complete                        0x0007ae98   Section        0  dfu_req_handling.o(i.on_dfu_complete)
    on_dfu_complete                          0x0007ae99   Thumb Code    30  dfu_req_handling.o(i.on_dfu_complete)
    i.on_operation_success                   0x0007aec0   Section        0  fstorage.o(i.on_operation_success)
    on_operation_success                     0x0007aec1   Thumb Code    80  fstorage.o(i.on_operation_success)
    i.on_rw_authorize_req                    0x0007af14   Section        0  nrf_ble_dfu.o(i.on_rw_authorize_req)
    on_rw_authorize_req                      0x0007af15   Thumb Code   142  nrf_ble_dfu.o(i.on_rw_authorize_req)
    i.on_write                               0x0007afa8   Section        0  nrf_ble_dfu.o(i.on_write)
    on_write                                 0x0007afa9   Thumb Code    90  nrf_ble_dfu.o(i.on_write)
    i.optimal_time_settings_onoff_calculate  0x0007b008   Section        0  sx150x_led_drv_calc.o(i.optimal_time_settings_onoff_calculate)
    optimal_time_settings_onoff_calculate    0x0007b009   Thumb Code   554  sx150x_led_drv_calc.o(i.optimal_time_settings_onoff_calculate)
    i.optimal_time_settings_risefall_calculate 0x0007b24c   Section        0  sx150x_led_drv_calc.o(i.optimal_time_settings_risefall_calculate)
    optimal_time_settings_risefall_calculate 0x0007b24d   Thumb Code   656  sx150x_led_drv_calc.o(i.optimal_time_settings_risefall_calculate)
    i.pb_dec_bytes                           0x0007b4e8   Section        0  pb_decode.o(i.pb_dec_bytes)
    pb_dec_bytes                             0x0007b4e9   Thumb Code    62  pb_decode.o(i.pb_dec_bytes)
    i.pb_dec_fixed32                         0x0007b526   Section        0  pb_decode.o(i.pb_dec_fixed32)
    pb_dec_fixed32                           0x0007b527   Thumb Code     6  pb_decode.o(i.pb_dec_fixed32)
    i.pb_dec_fixed64                         0x0007b52c   Section        0  pb_decode.o(i.pb_dec_fixed64)
    pb_dec_fixed64                           0x0007b52d   Thumb Code     6  pb_decode.o(i.pb_dec_fixed64)
    i.pb_dec_string                          0x0007b532   Section        0  pb_decode.o(i.pb_dec_string)
    pb_dec_string                            0x0007b533   Thumb Code    62  pb_decode.o(i.pb_dec_string)
    i.pb_dec_submessage                      0x0007b570   Section        0  pb_decode.o(i.pb_dec_submessage)
    pb_dec_submessage                        0x0007b571   Thumb Code    64  pb_decode.o(i.pb_dec_submessage)
    i.pb_dec_svarint                         0x0007b5b0   Section        0  pb_decode.o(i.pb_dec_svarint)
    pb_dec_svarint                           0x0007b5b1   Thumb Code    88  pb_decode.o(i.pb_dec_svarint)
    i.pb_dec_uvarint                         0x0007b608   Section        0  pb_decode.o(i.pb_dec_uvarint)
    pb_dec_uvarint                           0x0007b609   Thumb Code    88  pb_decode.o(i.pb_dec_uvarint)
    i.pb_dec_varint                          0x0007b660   Section        0  pb_decode.o(i.pb_dec_varint)
    pb_dec_varint                            0x0007b661   Thumb Code    90  pb_decode.o(i.pb_dec_varint)
    i.pb_decode                              0x0007b6ba   Section        0  pb_decode.o(i.pb_decode)
    i.pb_decode_fixed32                      0x0007b6d8   Section        0  pb_decode.o(i.pb_decode_fixed32)
    i.pb_decode_fixed64                      0x0007b6f8   Section        0  pb_decode.o(i.pb_decode_fixed64)
    i.pb_decode_noinit                       0x0007b754   Section        0  pb_decode.o(i.pb_decode_noinit)
    i.pb_decode_svarint                      0x0007b8da   Section        0  pb_decode.o(i.pb_decode_svarint)
    i.pb_decode_tag                          0x0007b914   Section        0  pb_decode.o(i.pb_decode_tag)
    i.pb_decode_varint                       0x0007b950   Section        0  pb_decode.o(i.pb_decode_varint)
    i.pb_decode_varint32                     0x0007b99a   Section        0  pb_decode.o(i.pb_decode_varint32)
    pb_decode_varint32                       0x0007b99b   Thumb Code    76  pb_decode.o(i.pb_decode_varint32)
    i.pb_decoding_callback                   0x0007b9e8   Section        0  dfu_req_handling.o(i.pb_decoding_callback)
    pb_decoding_callback                     0x0007b9e9   Thumb Code    26  dfu_req_handling.o(i.pb_decoding_callback)
    i.pb_field_iter_begin                    0x0007ba0c   Section        0  pb_common.o(i.pb_field_iter_begin)
    i.pb_field_iter_find                     0x0007ba2e   Section        0  pb_common.o(i.pb_field_iter_find)
    i.pb_field_iter_next                     0x0007ba5c   Section        0  pb_common.o(i.pb_field_iter_next)
    i.pb_field_set_to_default                0x0007badc   Section        0  pb_decode.o(i.pb_field_set_to_default)
    pb_field_set_to_default                  0x0007badd   Thumb Code   164  pb_decode.o(i.pb_field_set_to_default)
    i.pb_istream_from_buffer                 0x0007bb80   Section        0  pb_decode.o(i.pb_istream_from_buffer)
    i.pb_make_string_substream               0x0007bb94   Section        0  pb_decode.o(i.pb_make_string_substream)
    i.pb_message_set_to_defaults             0x0007bbca   Section        0  pb_decode.o(i.pb_message_set_to_defaults)
    pb_message_set_to_defaults               0x0007bbcb   Thumb Code    38  pb_decode.o(i.pb_message_set_to_defaults)
    i.pb_read                                0x0007bbf0   Section        0  pb_decode.o(i.pb_read)
    i.pb_readbyte                            0x0007bc48   Section        0  pb_decode.o(i.pb_readbyte)
    pb_readbyte                              0x0007bc49   Thumb Code    32  pb_decode.o(i.pb_readbyte)
    i.pb_skip_field                          0x0007bc68   Section        0  pb_decode.o(i.pb_skip_field)
    i.queue_advance                          0x0007bcc4   Section        0  fstorage.o(i.queue_advance)
    queue_advance                            0x0007bcc5   Thumb Code    36  fstorage.o(i.queue_advance)
    i.queue_get_next_free                    0x0007bcf0   Section        0  fstorage.o(i.queue_get_next_free)
    queue_get_next_free                      0x0007bcf1   Thumb Code    52  fstorage.o(i.queue_get_next_free)
    i.queue_process                          0x0007bd28   Section        0  fstorage.o(i.queue_process)
    queue_process                            0x0007bd29   Thumb Code   104  fstorage.o(i.queue_process)
    i.queue_start                            0x0007bd98   Section        0  fstorage.o(i.queue_start)
    queue_start                              0x0007bd99   Thumb Code    22  fstorage.o(i.queue_start)
    i.read_raw_value                         0x0007bdb4   Section        0  pb_decode.o(i.read_raw_value)
    read_raw_value                           0x0007bdb5   Thumb Code    98  pb_decode.o(i.read_raw_value)
    i.reg_get                                0x0007be18   Section        0  drv_sx1509.o(i.reg_get)
    reg_get                                  0x0007be19   Thumb Code    58  drv_sx1509.o(i.reg_get)
    i.reg_set                                0x0007be58   Section        0  drv_sx1509.o(i.reg_set)
    reg_set                                  0x0007be59   Thumb Code    46  drv_sx1509.o(i.reg_set)
    i.register_bits_modify                   0x0007be8c   Section        0  drv_sx1509.o(i.register_bits_modify)
    register_bits_modify                     0x0007be8d   Thumb Code    82  drv_sx1509.o(i.register_bits_modify)
    i.response_crc_cmd_send                  0x0007bee4   Section        0  nrf_ble_dfu.o(i.response_crc_cmd_send)
    response_crc_cmd_send                    0x0007bee5   Thumb Code    86  nrf_ble_dfu.o(i.response_crc_cmd_send)
    i.response_select_object_cmd_send        0x0007bf44   Section        0  nrf_ble_dfu.o(i.response_select_object_cmd_send)
    response_select_object_cmd_send          0x0007bf45   Thumb Code    98  nrf_ble_dfu.o(i.response_select_object_cmd_send)
    i.response_send                          0x0007bfb0   Section        0  nrf_ble_dfu.o(i.response_send)
    response_send                            0x0007bfb1   Thumb Code    54  nrf_ble_dfu.o(i.response_send)
    i.rtc1_stop                              0x0007bff0   Section        0  app_timer.o(i.rtc1_stop)
    rtc1_stop                                0x0007bff1   Thumb Code    52  app_timer.o(i.rtc1_stop)
    i.sd_nvic_EnableIRQ                      0x0007c02c   Section        0  softdevice_handler.o(i.sd_nvic_EnableIRQ)
    sd_nvic_EnableIRQ                        0x0007c02d   Thumb Code   110  softdevice_handler.o(i.sd_nvic_EnableIRQ)
    i.send_event                             0x0007c0a0   Section        0  fstorage.o(i.send_event)
    send_event                               0x0007c0a1   Thumb Code    76  fstorage.o(i.send_event)
    i.send_hvx                               0x0007c0ec   Section        0  nrf_ble_dfu.o(i.send_hvx)
    send_hvx                                 0x0007c0ed   Thumb Code    36  nrf_ble_dfu.o(i.send_hvx)
    i.service_data_encode                    0x0007c114   Section        0  ble_advdata.o(i.service_data_encode)
    service_data_encode                      0x0007c115   Thumb Code   136  ble_advdata.o(i.service_data_encode)
    i.sha256_final                           0x0007c19c   Section        0  sha256.o(i.sha256_final)
    i.sha256_init                            0x0007c2ac   Section        0  sha256.o(i.sha256_init)
    i.sha256_transform                       0x0007c300   Section        0  sha256.o(i.sha256_transform)
    i.sha256_update                          0x0007c42c   Section        0  sha256.o(i.sha256_update)
    i.softdevice_ble_evt_handler_set         0x0007c480   Section        0  softdevice_handler.o(i.softdevice_ble_evt_handler_set)
    i.softdevice_enable                      0x0007c494   Section        0  softdevice_handler.o(i.softdevice_enable)
    i.softdevice_enable_get_default_config   0x0007c4a8   Section        0  softdevice_handler.o(i.softdevice_enable_get_default_config)
    i.softdevice_evt_get                     0x0007c4d0   Section        0  softdevice_handler_appsh.o(i.softdevice_evt_get)
    i.softdevice_evt_schedule                0x0007c4f8   Section        0  softdevice_handler_appsh.o(i.softdevice_evt_schedule)
    i.softdevice_fault_handler               0x0007c524   Section        0  softdevice_handler.o(i.softdevice_fault_handler)
    i.softdevice_handler_init                0x0007c528   Section        0  softdevice_handler.o(i.softdevice_handler_init)
    i.softdevice_sys_evt_handler_set         0x0007c55c   Section        0  softdevice_handler.o(i.softdevice_sys_evt_handler_set)
    i.sx150x_led_drv_calc_convert            0x0007c570   Section        0  sx150x_led_drv_calc.o(i.sx150x_led_drv_calc_convert)
    i.sx150x_led_drv_calc_fade_supp          0x0007c5f8   Section        0  sx150x_led_drv_calc.o(i.sx150x_led_drv_calc_fade_supp)
    i.sx150x_led_drv_calc_init               0x0007c614   Section        0  sx150x_led_drv_calc.o(i.sx150x_led_drv_calc_init)
    i.timer_list_handler                     0x0007c630   Section        0  app_timer.o(i.timer_list_handler)
    timer_list_handler                       0x0007c631   Thumb Code   134  app_timer.o(i.timer_list_handler)
    i.timer_list_insert                      0x0007c6bc   Section        0  app_timer.o(i.timer_list_insert)
    timer_list_insert                        0x0007c6bd   Thumb Code    56  app_timer.o(i.timer_list_insert)
    i.timer_stop_op_schedule                 0x0007c6f8   Section        0  app_timer.o(i.timer_stop_op_schedule)
    timer_stop_op_schedule                   0x0007c6f9   Thumb Code    68  app_timer.o(i.timer_stop_op_schedule)
    i.timer_timeouts_check                   0x0007c740   Section        0  app_timer.o(i.timer_timeouts_check)
    timer_timeouts_check                     0x0007c741   Thumb Code   124  app_timer.o(i.timer_timeouts_check)
    i.twi_clear_bus                          0x0007c7c4   Section        0  nrf_drv_twi.o(i.twi_clear_bus)
    twi_clear_bus                            0x0007c7c5   Thumb Code   170  nrf_drv_twi.o(i.twi_clear_bus)
    i.twi_manager_request                    0x0007c874   Section        0  twi_manager.o(i.twi_manager_request)
    i.twi_process_error                      0x0007c8c4   Section        0  nrf_drv_twi.o(i.twi_process_error)
    twi_process_error                        0x0007c8c5   Thumb Code    30  nrf_drv_twi.o(i.twi_process_error)
    i.twi_rx_start_transfer                  0x0007c8e2   Section        0  nrf_drv_twi.o(i.twi_rx_start_transfer)
    twi_rx_start_transfer                    0x0007c8e3   Thumb Code   160  nrf_drv_twi.o(i.twi_rx_start_transfer)
    i.twi_send_byte                          0x0007c982   Section        0  nrf_drv_twi.o(i.twi_send_byte)
    twi_send_byte                            0x0007c983   Thumb Code    40  nrf_drv_twi.o(i.twi_send_byte)
    i.twi_transfer                           0x0007c9aa   Section        0  nrf_drv_twi.o(i.twi_transfer)
    twi_transfer                             0x0007c9ab   Thumb Code   266  nrf_drv_twi.o(i.twi_transfer)
    i.twi_tx_start_transfer                  0x0007cab4   Section        0  nrf_drv_twi.o(i.twi_tx_start_transfer)
    twi_tx_start_transfer                    0x0007cab5   Thumb Code   166  nrf_drv_twi.o(i.twi_tx_start_transfer)
    i.twi_xfer                               0x0007cb5a   Section        0  nrf_drv_twi.o(i.twi_xfer)
    twi_xfer                                 0x0007cb5b   Thumb Code   140  nrf_drv_twi.o(i.twi_xfer)
    i.uint16_encode                          0x0007cbe6   Section        0  ble_advdata.o(i.uint16_encode)
    uint16_encode                            0x0007cbe7   Thumb Code    10  ble_advdata.o(i.uint16_encode)
    i.uint32_encode                          0x0007cbf0   Section        0  nrf_ble_dfu.o(i.uint32_encode)
    uint32_encode                            0x0007cbf1   Thumb Code    18  nrf_ble_dfu.o(i.uint32_encode)
    i.update_timeout_handler                 0x0007cc04   Section        0  ble_conn_params.o(i.update_timeout_handler)
    update_timeout_handler                   0x0007cc05   Thumb Code    88  ble_conn_params.o(i.update_timeout_handler)
    i.user_op_alloc                          0x0007cc64   Section        0  app_timer.o(i.user_op_alloc)
    user_op_alloc                            0x0007cc65   Thumb Code    42  app_timer.o(i.user_op_alloc)
    i.uuid_list_encode                       0x0007cc94   Section        0  ble_advdata.o(i.uuid_list_encode)
    uuid_list_encode                         0x0007cc95   Thumb Code    48  ble_advdata.o(i.uuid_list_encode)
    i.uuid_list_sized_encode                 0x0007ccc4   Section        0  ble_advdata.o(i.uuid_list_sized_encode)
    uuid_list_sized_encode                   0x0007ccc5   Thumb Code   158  ble_advdata.o(i.uuid_list_sized_encode)
    .constdata                               0x0007cd62   Section        1  dfu-cc.pb.o(.constdata)
    .constdata                               0x0007cd64   Section       36  dfu-cc.pb.o(.constdata)
    .constdata                               0x0007cd88   Section      120  dfu-cc.pb.o(.constdata)
    .constdata                               0x0007ce00   Section       24  dfu-cc.pb.o(.constdata)
    .constdata                               0x0007ce18   Section       48  dfu-cc.pb.o(.constdata)
    .constdata                               0x0007ce48   Section       48  dfu-cc.pb.o(.constdata)
    .constdata                               0x0007ce78   Section       36  dfu-cc.pb.o(.constdata)
    .constdata                               0x0007ce9c   Section        8  dfu_req_handling.o(.constdata)
    crypto_key_pk                            0x0007ce9c   Data           8  dfu_req_handling.o(.constdata)
    .constdata                               0x0007cea4   Section       12  nrf_drv_twi.o(.constdata)
    .constdata                               0x0007ceb0   Section       84  drv_ext_light.o(.constdata)
    m_ioext_osc_status_use_matrix            0x0007ceb0   Data           4  drv_ext_light.o(.constdata)
    .constdata                               0x0007cf04   Section        6  sx150x_led_drv_calc.o(.constdata)
    .constdata                               0x0007cf0c   Section       64  dfu_public_key.o(.constdata)
    .constdata                               0x0007cf4c   Section        4  ble_conn_params.o(.constdata)
    m_conn_params_timer_id                   0x0007cf4c   Data           4  ble_conn_params.o(.constdata)
    .constdata                               0x0007cf50   Section       20  nrf_ble_dfu.o(.constdata)
    .constdata                               0x0007cf64   Section        8  nrf_dfu.o(.constdata)
    m_twi_sensors                            0x0007cf64   Data           8  nrf_dfu.o(.constdata)
    .constdata                               0x0007cf6c   Section       16  nrf_dfu.o(.constdata)
    led_config                               0x0007cf6c   Data          16  nrf_dfu.o(.constdata)
    .constdata                               0x0007cf7c   Section       16  nrf_dfu.o(.constdata)
    twi_config                               0x0007cf7c   Data          16  nrf_dfu.o(.constdata)
    .constdata                               0x0007cf8c   Section       12  nrf_dfu.o(.constdata)
    sx1509_cfg                               0x0007cf8c   Data          12  nrf_dfu.o(.constdata)
    .constdata                               0x0007cf98   Section       16  nrf_dfu.o(.constdata)
    led_init                                 0x0007cf98   Data          16  nrf_dfu.o(.constdata)
    .constdata                               0x0007cfa8   Section       16  nrf_dfu_flash.o(.constdata)
    .constdata                               0x0007cfb8   Section       64  nrf_dfu_mbr.o(.constdata)
    .constdata                               0x0007cff8   Section      256  sha256.o(.constdata)
    k                                        0x0007cff8   Data         256  sha256.o(.constdata)
    .constdata                               0x0007d0f8   Section       36  pb_decode.o(.constdata)
    PB_DECODERS                              0x0007d0f8   Data          36  pb_decode.o(.constdata)
    .constdata                               0x0007d11c   Section       16  segger_rtt_printf.o(.constdata)
    _aV2C                                    0x0007d11c   Data          16  segger_rtt_printf.o(.constdata)
    .conststring                             0x0007d12c   Section       72  drv_ext_light.o(.conststring)
    [Anonymous Symbol]                       0x0007d174   Section        0  micro_ecc_lib_uECC.c.o(.rodata.curve_secp256r1)
    curve_secp256r1                          0x0007d174   Data         176  micro_ecc_lib_uECC.c.o(.rodata.curve_secp256r1)
    dfu_trans                                0x0007d244   Section        8  nrf_ble_dfu.o(dfu_trans)
    __tagsym$$used                           0x0007d244   Number         0  nrf_ble_dfu.o(dfu_trans)
    dfu_trans                                0x0007d244   Data           8  nrf_ble_dfu.o(dfu_trans)
    .ARM.__AT_0x0007E000                     0x0007e000   Section     4096  nrf_dfu_settings.o(.ARM.__AT_0x0007E000)
    __tagsym$$used                           0x0007e000   Number         0  nrf_dfu_settings.o(.ARM.__AT_0x0007E000)
    .ARM.__AT_0x0007F000                     0x0007f000   Section     4096  nrf_dfu_settings.o(.ARM.__AT_0x0007F000)
    __tagsym$$used                           0x0007f000   Number         0  nrf_dfu_settings.o(.ARM.__AT_0x0007F000)
    .ARM.__AT_0x10001014                     0x10001014   Section        4  nrf_bootloader_info.o(.ARM.__AT_0x10001014)
    .ARM.__AT_0x10001018                     0x10001018   Section        4  nrf_dfu_settings.o(.ARM.__AT_0x10001018)
    .data                                    0x20002c00   Section       36  dfu_req_handling.o(.data)
    cur_obj_type                             0x20002c00   Data           1  dfu_req_handling.o(.data)
    m_current_data_buffer                    0x20002c01   Data           1  dfu_req_handling.o(.data)
    m_valid_init_packet_present              0x20002c02   Data           1  dfu_req_handling.o(.data)
    m_data_buf_pos                           0x20002c04   Data           2  dfu_req_handling.o(.data)
    m_flash_operations_pending               0x20002c08   Data           4  dfu_req_handling.o(.data)
    m_firmware_start_addr                    0x20002c0c   Data           4  dfu_req_handling.o(.data)
    m_firmware_size_req                      0x20002c10   Data           4  dfu_req_handling.o(.data)
    crypto_sig                               0x20002c14   Data           8  dfu_req_handling.o(.data)
    hash_data                                0x20002c1c   Data           8  dfu_req_handling.o(.data)
    .data                                    0x20002c24   Section        4  drv_sx1509.o(.data)
    m_drv_sx1509                             0x20002c24   Data           4  drv_sx1509.o(.data)
    .data                                    0x20002c28   Section        8  twi_manager.o(.data)
    s_context_limit                          0x20002c28   Data           1  twi_manager.o(.data)
    s_collisions                             0x20002c2c   Data           4  twi_manager.o(.data)
    .data                                    0x20002c30   Section       20  drv_ext_light.o(.data)
    num_lights_curr_using_osc                0x20002c30   Data           1  drv_ext_light.o(.data)
    m_clkx_div                               0x20002c31   Data           1  drv_ext_light.o(.data)
    m_app_timer_prescaler                    0x20002c32   Data           1  drv_ext_light.o(.data)
    m_p_light_conf                           0x20002c34   Data           4  drv_ext_light.o(.data)
    m_p_drv_sx1509_cfg                       0x20002c38   Data           4  drv_ext_light.o(.data)
    m_clkx_tics_pr_sec                       0x20002c3c   Data           4  drv_ext_light.o(.data)
    m_num_lights                             0x20002c40   Data           4  drv_ext_light.o(.data)
    .data                                    0x20002c44   Section        8  sx150x_led_drv_calc.o(.data)
    m_initialized                            0x20002c44   Data           1  sx150x_led_drv_calc.o(.data)
    m_fade_supported_port_mask               0x20002c46   Data           2  sx150x_led_drv_calc.o(.data)
    m_clkx_tics_pr_sec                       0x20002c48   Data           4  sx150x_led_drv_calc.o(.data)
    .data                                    0x20002c4c   Section       20  ble_conn_params.o(.data)
    m_change_param                           0x20002c4c   Data           1  ble_conn_params.o(.data)
    m_update_count                           0x20002c4d   Data           1  ble_conn_params.o(.data)
    m_conn_handle                            0x20002c4e   Data           2  ble_conn_params.o(.data)
    m_preferred_conn_params                  0x20002c50   Data           8  ble_conn_params.o(.data)
    m_current_conn_params                    0x20002c58   Data           8  ble_conn_params.o(.data)
    .data                                    0x20002c60   Section       12  nrf_ble_dfu.o(.data)
    m_conn_handle                            0x20002c60   Data           2  nrf_ble_dfu.o(.data)
    m_pkt_notif_target                       0x20002c62   Data           2  nrf_ble_dfu.o(.data)
    m_pkt_notif_target_cnt                   0x20002c64   Data           2  nrf_ble_dfu.o(.data)
    m_flags                                  0x20002c68   Data           4  nrf_ble_dfu.o(.data)
    .data                                    0x20002c6c   Section        8  nrf_dfu.o(.data)
    my_led_0                                 0x20002c6c   Data           8  nrf_dfu.o(.data)
    .data                                    0x20002c74   Section        8  nrf_dfu.o(.data)
    my_led_1                                 0x20002c74   Data           8  nrf_dfu.o(.data)
    .data                                    0x20002c7c   Section       28  nrf_dfu.o(.data)
    sequence                                 0x20002c7c   Data          28  nrf_dfu.o(.data)
    .data                                    0x20002c98   Section        4  nrf_dfu_flash.o(.data)
    m_flags                                  0x20002c98   Data           4  nrf_dfu_flash.o(.data)
    .data                                    0x20002c9c   Section        8  nrf_dfu_settings.o(.data)
    flash_operation_pending                  0x20002c9c   Data           1  nrf_dfu_settings.o(.data)
    m_callback                               0x20002ca0   Data           4  nrf_dfu_settings.o(.data)
    .data                                    0x20002ca4   Section       16  app_scheduler.o(.data)
    m_queue_start_index                      0x20002ca4   Data           1  app_scheduler.o(.data)
    m_queue_end_index                        0x20002ca5   Data           1  app_scheduler.o(.data)
    m_queue_event_size                       0x20002ca6   Data           2  app_scheduler.o(.data)
    m_queue_size                             0x20002ca8   Data           2  app_scheduler.o(.data)
    m_queue_event_headers                    0x20002cac   Data           4  app_scheduler.o(.data)
    m_queue_event_data                       0x20002cb0   Data           4  app_scheduler.o(.data)
    .data                                    0x20002cb4   Section       32  app_timer.o(.data)
    m_ticks_elapsed_q_read_ind               0x20002cb4   Data           1  app_timer.o(.data)
    m_ticks_elapsed_q_write_ind              0x20002cb5   Data           1  app_timer.o(.data)
    m_rtc1_running                           0x20002cb6   Data           1  app_timer.o(.data)
    m_rtc1_reset                             0x20002cb7   Data           1  app_timer.o(.data)
    mp_timer_id_head                         0x20002cb8   Data           4  app_timer.o(.data)
    m_ticks_latest                           0x20002cbc   Data           4  app_timer.o(.data)
    m_evt_schedule_func                      0x20002cc0   Data           4  app_timer.o(.data)
    m_op_queue                               0x20002cc4   Data           8  app_timer.o(.data)
    m_ticks_elapsed                          0x20002ccc   Data           8  app_timer.o(.data)
    .data                                    0x20002cd4   Section        2  fstorage.o(.data)
    m_flags                                  0x20002cd4   Data           1  fstorage.o(.data)
    m_retry_count                            0x20002cd5   Data           1  fstorage.o(.data)
    .data                                    0x20002cd8   Section       20  softdevice_handler.o(.data)
    m_softdevice_enabled                     0x20002cd8   Data           1  softdevice_handler.o(.data)
    m_suspended                              0x20002cd9   Data           1  softdevice_handler.o(.data)
    m_ble_evt_buffer_size                    0x20002cda   Data           2  softdevice_handler.o(.data)
    m_evt_schedule_func                      0x20002cdc   Data           4  softdevice_handler.o(.data)
    mp_ble_evt_buffer                        0x20002ce0   Data           4  softdevice_handler.o(.data)
    m_ble_evt_handler                        0x20002ce4   Data           4  softdevice_handler.o(.data)
    m_sys_evt_handler                        0x20002ce8   Data           4  softdevice_handler.o(.data)
    .data                                    0x20002cec   Section        4  softdevice_handler_appsh.o(.data)
    evt_scheduled                            0x20002cec   Data           4  softdevice_handler_appsh.o(.data)
    .data                                    0x20002cf0   Section        4  system_nrf52.o(.data)
    __tagsym$$used                           0x20002cf0   Number         0  system_nrf52.o(.data)
    fs_data                                  0x20002cf4   Section       16  nrf_dfu_flash.o(fs_data)
    __tagsym$$used                           0x20002cf4   Number         0  nrf_dfu_flash.o(fs_data)
    fs_dfu_config                            0x20002cf4   Data          16  nrf_dfu_flash.o(fs_data)
    .bss                                     0x20002d04   Section     1436  dfu_req_handling.o(.bss)
    packet                                   0x20002d04   Data         300  dfu_req_handling.o(.bss)
    m_data_buf                               0x20002e30   Data        1024  dfu_req_handling.o(.bss)
    hash                                     0x20003230   Data          32  dfu_req_handling.o(.bss)
    sig                                      0x20003250   Data          64  dfu_req_handling.o(.bss)
    stream                                   0x20003290   Data          16  dfu_req_handling.o(.bss)
    .bss                                     0x200032a0   Section       40  nrf_drv_twi.o(.bss)
    m_cb                                     0x200032a0   Data          40  nrf_drv_twi.o(.bss)
    .bss                                     0x200032c8   Section       32  ble_conn_params.o(.bss)
    m_conn_params_timer_id_data              0x200032c8   Data          32  ble_conn_params.o(.bss)
    .bss                                     0x200032e8   Section       28  ble_conn_params.o(.bss)
    m_conn_params_config                     0x200032e8   Data          28  ble_conn_params.o(.bss)
    .bss                                     0x20003304   Section      367  nrf_ble_dfu.o(.bss)
    BLE_EVT_BUFFER                           0x20003304   Data         332  nrf_ble_dfu.o(.bss)
    m_dfu                                    0x20003450   Data          20  nrf_ble_dfu.o(.bss)
    m_notif_buffer                           0x20003464   Data          15  nrf_ble_dfu.o(.bss)
    .bss                                     0x20003474   Section       12  nrf_dfu.o(.bss)
    my_led_0_timings                         0x20003474   Data          12  nrf_dfu.o(.bss)
    .bss                                     0x20003480   Section       32  nrf_dfu.o(.bss)
    my_led_0_timer_data                      0x20003480   Data          32  nrf_dfu.o(.bss)
    .bss                                     0x200034a0   Section       12  nrf_dfu.o(.bss)
    my_led_1_timings                         0x200034a0   Data          12  nrf_dfu.o(.bss)
    .bss                                     0x200034ac   Section       32  nrf_dfu.o(.bss)
    my_led_1_timer_data                      0x200034ac   Data          32  nrf_dfu.o(.bss)
    .bss                                     0x200034cc   Section      456  nrf_dfu.o(.bss)
    APP_TIMER_BUF                            0x200034cc   Data         120  nrf_dfu.o(.bss)
    APP_SCHED_BUF                            0x20003544   Data         336  nrf_dfu.o(.bss)
    .bss                                     0x20003694   Section      696  nrf_dfu_settings.o(.bss)
    temp_dfu_settings                        0x20003694   Data         348  nrf_dfu_settings.o(.bss)
    .bss                                     0x2000394c   Section       12  app_util_platform.o(.bss)
    .bss                                     0x20003958   Section      104  fstorage.o(.bss)
    m_queue                                  0x20003958   Data         104  fstorage.o(.bss)
    .bss                                     0x200039c0   Section     1160  segger_rtt.o(.bss)
    _acUpBuffer                              0x200039c0   Data        1024  segger_rtt.o(.bss)
    _acDownBuffer                            0x20003dc0   Data          16  segger_rtt.o(.bss)
    STACK                                    0x20003e48   Section     8192  arm_startup_nrf52.o(STACK)

    Global Symbols

    Symbol Name                              Value     Ov Type        Size  Object(Section)

    BuildAttributes$$THM_ISAv4$E$P$D$K$B$S$7EM$VFPi3$EXTD16$VFPS$VFMA$PE$A:L22UL41UL21$X:L11$S22US41US21$IEEE1$IW$USESV6$~STKCKD$USESV7$~SHL$OTIME$ROPI$IEEEX$EBA8$MICROLIB$REQ8$PRES8$EABIv2 0x00000000   Number         0  anon$$obj.o ABSOLUTE
    __ARM_use_no_argv                        0x00000000   Number         0  main.o ABSOLUTE
    __cpp_initialize__aeabi_                  - Undefined Weak Reference
    __cxa_finalize                            - Undefined Weak Reference
    __decompress                              - Undefined Weak Reference
    _clock_init                               - Undefined Weak Reference
    _microlib_exit                            - Undefined Weak Reference
    __Vectors_Size                           0x00000400   Number         0  arm_startup_nrf52.o ABSOLUTE
    Image$$ER_IROM1$$Base                    0x00075000   Number         0  anon$$obj.o ABSOLUTE
    __Vectors                                0x00075000   Data           4  arm_startup_nrf52.o(RESET)
    __Vectors_End                            0x00075400   Data           0  arm_startup_nrf52.o(RESET)
    __main                                   0x00075401   Thumb Code     0  entry.o(.ARM.Collect$$$$00000000)
    _main_stk                                0x00075401   Thumb Code     0  entry2.o(.ARM.Collect$$$$00000001)
    _main_scatterload                        0x00075405   Thumb Code     0  entry5.o(.ARM.Collect$$$$00000004)
    __main_after_scatterload                 0x00075409   Thumb Code     0  entry5.o(.ARM.Collect$$$$00000004)
    _main_clock                              0x00075409   Thumb Code     0  entry7b.o(.ARM.Collect$$$$00000008)
    _main_cpp_init                           0x00075409   Thumb Code     0  entry8b.o(.ARM.Collect$$$$0000000A)
    _main_init                               0x00075409   Thumb Code     0  entry9a.o(.ARM.Collect$$$$0000000B)
    __rt_final_cpp                           0x00075411   Thumb Code     0  entry10a.o(.ARM.Collect$$$$0000000D)
    __rt_final_exit                          0x00075411   Thumb Code     0  entry11a.o(.ARM.Collect$$$$0000000F)
    __asm___26_nrf_bootloader_app_start_c_5c9f33f9__nrf_bootloader_app_start_impl 0x00075415   Thumb Code    52  nrf_bootloader_app_start.o(.emb_text)
    Reset_Handler                            0x00075449   Thumb Code     8  arm_startup_nrf52.o(.text)
    NMI_Handler                              0x00075451   Thumb Code     2  arm_startup_nrf52.o(.text)
    HardFault_Handler                        0x00075453   Thumb Code     2  arm_startup_nrf52.o(.text)
    MemoryManagement_Handler                 0x00075455   Thumb Code     2  arm_startup_nrf52.o(.text)
    BusFault_Handler                         0x00075457   Thumb Code     2  arm_startup_nrf52.o(.text)
    UsageFault_Handler                       0x00075459   Thumb Code     2  arm_startup_nrf52.o(.text)
    SVC_Handler                              0x0007545b   Thumb Code     2  arm_startup_nrf52.o(.text)
    DebugMon_Handler                         0x0007545d   Thumb Code     2  arm_startup_nrf52.o(.text)
    PendSV_Handler                           0x0007545f   Thumb Code     2  arm_startup_nrf52.o(.text)
    SysTick_Handler                          0x00075461   Thumb Code     2  arm_startup_nrf52.o(.text)
    CCM_AAR_IRQHandler                       0x00075463   Thumb Code     0  arm_startup_nrf52.o(.text)
    COMP_LPCOMP_IRQHandler                   0x00075463   Thumb Code     0  arm_startup_nrf52.o(.text)
    ECB_IRQHandler                           0x00075463   Thumb Code     0  arm_startup_nrf52.o(.text)
    FPU_IRQHandler                           0x00075463   Thumb Code     0  arm_startup_nrf52.o(.text)
    GPIOTE_IRQHandler                        0x00075463   Thumb Code     0  arm_startup_nrf52.o(.text)
    I2S_IRQHandler                           0x00075463   Thumb Code     0  arm_startup_nrf52.o(.text)
    MWU_IRQHandler                           0x00075463   Thumb Code     0  arm_startup_nrf52.o(.text)
    NFCT_IRQHandler                          0x00075463   Thumb Code     0  arm_startup_nrf52.o(.text)
    PDM_IRQHandler                           0x00075463   Thumb Code     0  arm_startup_nrf52.o(.text)
    POWER_CLOCK_IRQHandler                   0x00075463   Thumb Code     0  arm_startup_nrf52.o(.text)
    PWM0_IRQHandler                          0x00075463   Thumb Code     0  arm_startup_nrf52.o(.text)
    PWM1_IRQHandler                          0x00075463   Thumb Code     0  arm_startup_nrf52.o(.text)
    PWM2_IRQHandler                          0x00075463   Thumb Code     0  arm_startup_nrf52.o(.text)
    QDEC_IRQHandler                          0x00075463   Thumb Code     0  arm_startup_nrf52.o(.text)
    RADIO_IRQHandler                         0x00075463   Thumb Code     0  arm_startup_nrf52.o(.text)
    RNG_IRQHandler                           0x00075463   Thumb Code     0  arm_startup_nrf52.o(.text)
    RTC0_IRQHandler                          0x00075463   Thumb Code     0  arm_startup_nrf52.o(.text)
    RTC2_IRQHandler                          0x00075463   Thumb Code     0  arm_startup_nrf52.o(.text)
    SAADC_IRQHandler                         0x00075463   Thumb Code     0  arm_startup_nrf52.o(.text)
    SPIM1_SPIS1_TWIM1_TWIS1_SPI1_TWI1_IRQHandler 0x00075463   Thumb Code     0  arm_startup_nrf52.o(.text)
    SPIM2_SPIS2_SPI2_IRQHandler              0x00075463   Thumb Code     0  arm_startup_nrf52.o(.text)
    SWI1_EGU1_IRQHandler                     0x00075463   Thumb Code     0  arm_startup_nrf52.o(.text)
    SWI3_EGU3_IRQHandler                     0x00075463   Thumb Code     0  arm_startup_nrf52.o(.text)
    SWI4_EGU4_IRQHandler                     0x00075463   Thumb Code     0  arm_startup_nrf52.o(.text)
    SWI5_EGU5_IRQHandler                     0x00075463   Thumb Code     0  arm_startup_nrf52.o(.text)
    TEMP_IRQHandler                          0x00075463   Thumb Code     0  arm_startup_nrf52.o(.text)
    TIMER0_IRQHandler                        0x00075463   Thumb Code     0  arm_startup_nrf52.o(.text)
    TIMER1_IRQHandler                        0x00075463   Thumb Code     0  arm_startup_nrf52.o(.text)
    TIMER2_IRQHandler                        0x00075463   Thumb Code     0  arm_startup_nrf52.o(.text)
    TIMER3_IRQHandler                        0x00075463   Thumb Code     0  arm_startup_nrf52.o(.text)
    TIMER4_IRQHandler                        0x00075463   Thumb Code     0  arm_startup_nrf52.o(.text)
    UARTE0_UART0_IRQHandler                  0x00075463   Thumb Code     0  arm_startup_nrf52.o(.text)
    WDT_IRQHandler                           0x00075463   Thumb Code     0  arm_startup_nrf52.o(.text)
    __aeabi_uldivmod                         0x0007546d   Thumb Code    98  uldiv.o(.text)
    __aeabi_llsl                             0x000754cf   Thumb Code    30  llshl.o(.text)
    _ll_shift_l                              0x000754cf   Thumb Code     0  llshl.o(.text)
    __aeabi_memcpy                           0x000754ed   Thumb Code    36  memcpya.o(.text)
    __aeabi_memcpy4                          0x000754ed   Thumb Code     0  memcpya.o(.text)
    __aeabi_memcpy8                          0x000754ed   Thumb Code     0  memcpya.o(.text)
    __aeabi_memset                           0x00075511   Thumb Code    14  memseta.o(.text)
    __aeabi_memset4                          0x00075511   Thumb Code     0  memseta.o(.text)
    __aeabi_memset8                          0x00075511   Thumb Code     0  memseta.o(.text)
    __aeabi_memclr                           0x0007551f   Thumb Code     4  memseta.o(.text)
    __aeabi_memclr4                          0x0007551f   Thumb Code     0  memseta.o(.text)
    __aeabi_memclr8                          0x0007551f   Thumb Code     0  memseta.o(.text)
    memset                                   0x00075523   Thumb Code    18  memseta.o(.text)
    memcmp                                   0x00075535   Thumb Code    26  memcmp.o(.text)
    strcpy                                   0x0007554f   Thumb Code    18  strcpy.o(.text)
    __aeabi_d2uiz                            0x00075561   Thumb Code    50  dfixui.o(.text)
    __aeabi_f2d                              0x00075593   Thumb Code    38  f2d.o(.text)
    __aeabi_llsr                             0x000755b9   Thumb Code    32  llushr.o(.text)
    _ll_ushift_r                             0x000755b9   Thumb Code     0  llushr.o(.text)
    __I$use$fp                               0x000755d9   Thumb Code     0  iusefp.o(.text)
    __aeabi_dadd                             0x000755d9   Thumb Code   322  dadd.o(.text)
    __aeabi_dsub                             0x0007571b   Thumb Code     6  dadd.o(.text)
    __aeabi_drsub                            0x00075721   Thumb Code     6  dadd.o(.text)
    _drnd                                    0x00075729   Thumb Code   132  drnd.o(.text)
    __aeabi_cdcmpeq                          0x000757b1   Thumb Code     0  cdcmple.o(.text)
    __aeabi_cdcmple                          0x000757b1   Thumb Code    48  cdcmple.o(.text)
    __aeabi_cdrcmple                         0x000757e1   Thumb Code    48  cdrcmple.o(.text)
    __scatterload                            0x00075811   Thumb Code    28  init.o(.text)
    __scatterload_rt2                        0x00075811   Thumb Code     0  init.o(.text)
    __aeabi_lasr                             0x00075835   Thumb Code    36  llsshr.o(.text)
    _ll_sshift_r                             0x00075835   Thumb Code     0  llsshr.o(.text)
    _double_round                            0x00075859   Thumb Code    30  depilogue.o(.text)
    _double_epilogue                         0x00075877   Thumb Code   156  depilogue.o(.text)
    uECC_secp256r1                           0x00075c05   Thumb Code     8  micro_ecc_lib_uECC.c.o(.text.uECC_secp256r1)
    uECC_verify                              0x00075c0d   Thumb Code   724  micro_ecc_lib_uECC.c.o(.text.uECC_verify)
    uECC_vli_add                             0x00075ee1   Thumb Code    88  micro_ecc_lib_uECC.c.o(.text.uECC_vli_add)
    uECC_vli_clear                           0x00075f39   Thumb Code    24  micro_ecc_lib_uECC.c.o(.text.uECC_vli_clear)
    uECC_vli_equal                           0x00075f7b   Thumb Code    42  micro_ecc_lib_uECC.c.o(.text.uECC_vli_equal)
    uECC_vli_isZero                          0x00075fa5   Thumb Code    30  micro_ecc_lib_uECC.c.o(.text.uECC_vli_isZero)
    uECC_vli_mmod                            0x00075fc5   Thumb Code   316  micro_ecc_lib_uECC.c.o(.text.uECC_vli_mmod)
    uECC_vli_modAdd                          0x00076101   Thumb Code    50  micro_ecc_lib_uECC.c.o(.text.uECC_vli_modAdd)
    uECC_vli_modInv                          0x00076133   Thumb Code   268  micro_ecc_lib_uECC.c.o(.text.uECC_vli_modInv)
    uECC_vli_modMult                         0x0007623f   Thumb Code    36  micro_ecc_lib_uECC.c.o(.text.uECC_vli_modMult)
    uECC_vli_modMult_fast                    0x00076263   Thumb Code    32  micro_ecc_lib_uECC.c.o(.text.uECC_vli_modMult_fast)
    uECC_vli_modSquare_fast                  0x00076283   Thumb Code    32  micro_ecc_lib_uECC.c.o(.text.uECC_vli_modSquare_fast)
    uECC_vli_modSub                          0x000762a3   Thumb Code    36  micro_ecc_lib_uECC.c.o(.text.uECC_vli_modSub)
    uECC_vli_mult                            0x000762c7   Thumb Code   786  micro_ecc_lib_uECC.c.o(.text.uECC_vli_mult)
    uECC_vli_numBits                         0x000765d9   Thumb Code    68  micro_ecc_lib_uECC.c.o(.text.uECC_vli_numBits)
    uECC_vli_rshift1                         0x0007661d   Thumb Code    26  micro_ecc_lib_uECC.c.o(.text.uECC_vli_rshift1)
    uECC_vli_set                             0x00076637   Thumb Code    26  micro_ecc_lib_uECC.c.o(.text.uECC_vli_set)
    uECC_vli_square                          0x00076651   Thumb Code   652  micro_ecc_lib_uECC.c.o(.text.uECC_vli_square)
    uECC_vli_sub                             0x000768e1   Thumb Code    94  micro_ecc_lib_uECC.c.o(.text.uECC_vli_sub)
    uECC_vli_testBit                         0x00076941   Thumb Code    18  micro_ecc_lib_uECC.c.o(.text.uECC_vli_testBit)
    RTC1_IRQHandler                          0x00076c21   Thumb Code    32  app_timer.o(i.RTC1_IRQHandler)
    SEGGER_RTT_Write                         0x00076c45   Thumb Code    32  segger_rtt.o(i.SEGGER_RTT_Write)
    SEGGER_RTT_WriteNoLock                   0x00076c69   Thumb Code    86  segger_rtt.o(i.SEGGER_RTT_WriteNoLock)
    SEGGER_RTT_printf                        0x00076cc5   Thumb Code    22  segger_rtt_printf.o(i.SEGGER_RTT_printf)
    SEGGER_RTT_vprintf                       0x00076cdb   Thumb Code   406  segger_rtt_printf.o(i.SEGGER_RTT_vprintf)
    SPIM0_SPIS0_TWIM0_TWIS0_SPI0_TWI0_IRQHandler 0x00076e71   Thumb Code     8  nrf_drv_twi.o(i.SPIM0_SPIS0_TWIM0_TWIS0_SPI0_TWI0_IRQHandler)
    SWI0_EGU0_IRQHandler                     0x00076e81   Thumb Code     4  app_timer.o(i.SWI0_EGU0_IRQHandler)
    SWI2_EGU2_IRQHandler                     0x00076e85   Thumb Code    32  softdevice_handler.o(i.SWI2_EGU2_IRQHandler)
    SystemInit                               0x00076ea9   Thumb Code   610  system_nrf52.o(i.SystemInit)
    __hardfp_round                           0x00077439   Thumb Code   194  round.o(i.__hardfp_round)
    __scatterload_copy                       0x00077519   Thumb Code    14  handlers.o(i.__scatterload_copy)
    __scatterload_null                       0x00077527   Thumb Code     2  handlers.o(i.__scatterload_null)
    __scatterload_zeroinit                   0x00077529   Thumb Code    14  handlers.o(i.__scatterload_zeroinit)
    adv_data_encode                          0x0007755d   Thumb Code   386  ble_advdata.o(i.adv_data_encode)
    app_error_fault_handler                  0x00077761   Thumb Code     4  main.o(i.app_error_fault_handler)
    app_error_handler_bare                   0x00077765   Thumb Code     4  main.o(i.app_error_handler_bare)
    app_sched_event_put                      0x00077769   Thumb Code   154  app_scheduler.o(i.app_sched_event_put)
    app_sched_execute                        0x00077809   Thumb Code    58  app_scheduler.o(i.app_sched_execute)
    app_sched_init                           0x00077849   Thumb Code    40  app_scheduler.o(i.app_sched_init)
    app_timer_create                         0x00077875   Thumb Code    32  app_timer.o(i.app_timer_create)
    app_timer_evt_schedule                   0x000778b1   Thumb Code    18  app_timer_appsh.o(i.app_timer_evt_schedule)
    app_timer_init                           0x000778c9   Thumb Code   102  app_timer.o(i.app_timer_init)
    app_timer_start                          0x00077939   Thumb Code   128  app_timer.o(i.app_timer_start)
    app_timer_stop                           0x000779c1   Thumb Code    26  app_timer.o(i.app_timer_stop)
    app_util_critical_region_enter           0x000779e1   Thumb Code    64  app_util_platform.o(i.app_util_critical_region_enter)
    app_util_critical_region_exit            0x00077a29   Thumb Code    46  app_util_platform.o(i.app_util_critical_region_exit)
    ble_advdata_set                          0x00077a5d   Thumb Code   104  ble_advdata.o(i.ble_advdata_set)
    ble_conn_params_init                     0x00077ac5   Thumb Code    72  ble_conn_params.o(i.ble_conn_params_init)
    ble_conn_params_on_ble_evt               0x00077b1d   Thumb Code   120  ble_conn_params.o(i.ble_conn_params_on_ble_evt)
    ble_conn_params_stop                     0x00077ba1   Thumb Code     8  ble_conn_params.o(i.ble_conn_params_stop)
    ble_dfu_init                             0x00077c0d   Thumb Code    98  nrf_ble_dfu.o(i.ble_dfu_init)
    ble_dfu_transport_close                  0x00077c79   Thumb Code    76  nrf_ble_dfu.o(i.ble_dfu_transport_close)
    ble_dfu_transport_init                   0x00077ccd   Thumb Code   162  nrf_ble_dfu.o(i.ble_dfu_transport_init)
    ble_srv_is_notification_enabled          0x00077d9f   Thumb Code     8  ble_srv_common.o(i.ble_srv_is_notification_enabled)
    crc32_compute                            0x00077f79   Thumb Code    54  crc32.o(i.crc32_compute)
    drv_ext_light_init                       0x00078495   Thumb Code   616  drv_ext_light.o(i.drv_ext_light_init)
    drv_ext_light_rgb_sequence               0x00078739   Thumb Code    78  drv_ext_light.o(i.drv_ext_light_rgb_sequence)
    drv_sx1509_clock_modify                  0x000787bd   Thumb Code    48  drv_sx1509.o(i.drv_sx1509_clock_modify)
    drv_sx1509_close                         0x000787ed   Thumb Code    32  drv_sx1509.o(i.drv_sx1509_close)
    drv_sx1509_data_modify                   0x00078811   Thumb Code    46  drv_sx1509.o(i.drv_sx1509_data_modify)
    drv_sx1509_dir_modify                    0x0007883f   Thumb Code    46  drv_sx1509.o(i.drv_sx1509_dir_modify)
    drv_sx1509_init                          0x0007886d   Thumb Code     8  drv_sx1509.o(i.drv_sx1509_init)
    drv_sx1509_inpbufdisable_modify          0x00078879   Thumb Code    46  drv_sx1509.o(i.drv_sx1509_inpbufdisable_modify)
    drv_sx1509_leddriverenable_modify        0x000788a7   Thumb Code    46  drv_sx1509.o(i.drv_sx1509_leddriverenable_modify)
    drv_sx1509_misc_modify                   0x000788d5   Thumb Code    32  drv_sx1509.o(i.drv_sx1509_misc_modify)
    drv_sx1509_onoffcfgx_modify              0x000788f5   Thumb Code    98  drv_sx1509.o(i.drv_sx1509_onoffcfgx_modify)
    drv_sx1509_open                          0x00078959   Thumb Code    40  drv_sx1509.o(i.drv_sx1509_open)
    drv_sx1509_opendrain_modify              0x00078985   Thumb Code    46  drv_sx1509.o(i.drv_sx1509_opendrain_modify)
    drv_sx1509_pulldown_modify               0x000789b3   Thumb Code    46  drv_sx1509.o(i.drv_sx1509_pulldown_modify)
    drv_sx1509_pullup_modify                 0x000789e1   Thumb Code    46  drv_sx1509.o(i.drv_sx1509_pullup_modify)
    drv_sx1509_reset                         0x00078a11   Thumb Code    46  drv_sx1509.o(i.drv_sx1509_reset)
    drv_sx1509_risefallcfgx_modify           0x00078a45   Thumb Code    78  drv_sx1509.o(i.drv_sx1509_risefallcfgx_modify)
    ecc_p256_verify                          0x00078a93   Thumb Code    74  ecc.o(i.ecc_p256_verify)
    fs_erase                                 0x00078b1d   Thumb Code   110  fstorage.o(i.fs_erase)
    fs_fake_init                             0x00078bb9   Thumb Code    14  fstorage.o(i.fs_fake_init)
    fs_store                                 0x00078bcd   Thumb Code   124  fstorage.o(i.fs_store)
    fs_sys_event_handler                     0x00078c4d   Thumb Code    96  fstorage.o(i.fs_sys_event_handler)
    intern_softdevice_events_execute         0x00078d25   Thumb Code   118  softdevice_handler.o(i.intern_softdevice_events_execute)
    main                                     0x0007991d   Thumb Code    74  main.o(i.main)
    nrf_bootloader_app_start                 0x00079a99   Thumb Code    42  nrf_bootloader_app_start.o(i.nrf_bootloader_app_start)
    nrf_bootloader_init                      0x00079ac3   Thumb Code     8  nrf_bootloader.o(i.nrf_bootloader_init)
    nrf_crypto_hash_compute                  0x00079acb   Thumb Code    76  nrf_crypto.o(i.nrf_crypto_hash_compute)
    nrf_crypto_verify                        0x00079b17   Thumb Code    46  nrf_crypto.o(i.nrf_crypto_verify)
    nrf_dfu_app_is_valid                     0x00079f39   Thumb Code    42  nrf_dfu_utils.o(i.nrf_dfu_app_is_valid)
    nrf_dfu_continue                         0x0007a0b9   Thumb Code    46  nrf_dfu_utils.o(i.nrf_dfu_continue)
    nrf_dfu_enter_check                      0x0007a3c9   Thumb Code    48  nrf_dfu.o(i.nrf_dfu_enter_check)
    nrf_dfu_find_cache                       0x0007a405   Thumb Code   102  nrf_dfu_utils.o(i.nrf_dfu_find_cache)
    nrf_dfu_flash_erase                      0x0007a471   Thumb Code   140  nrf_dfu_flash.o(i.nrf_dfu_flash_erase)
    nrf_dfu_flash_init                       0x0007a509   Thumb Code    36  nrf_dfu_flash.o(i.nrf_dfu_flash_init)
    nrf_dfu_flash_store                      0x0007a535   Thumb Code   132  nrf_dfu_flash.o(i.nrf_dfu_flash_store)
    nrf_dfu_init                             0x0007a5c1   Thumb Code   146  nrf_dfu.o(i.nrf_dfu_init)
    nrf_dfu_mbr_compare                      0x0007a681   Thumb Code    24  nrf_dfu_mbr.o(i.nrf_dfu_mbr_compare)
    nrf_dfu_mbr_copy_bl                      0x0007a69d   Thumb Code    22  nrf_dfu_mbr.o(i.nrf_dfu_mbr_copy_bl)
    nrf_dfu_mbr_copy_sd                      0x0007a6b5   Thumb Code    32  nrf_dfu_mbr.o(i.nrf_dfu_mbr_copy_sd)
    nrf_dfu_mbr_init_sd                      0x0007a6d9   Thumb Code    18  nrf_dfu_mbr.o(i.nrf_dfu_mbr_init_sd)
    nrf_dfu_req_handler_init                 0x0007a7f9   Thumb Code    70  dfu_req_handling.o(i.nrf_dfu_req_handler_init)
    nrf_dfu_req_handler_on_req               0x0007a849   Thumb Code    58  dfu_req_handling.o(i.nrf_dfu_req_handler_on_req)
    nrf_dfu_settings_calculate_crc           0x0007a909   Thumb Code    10  nrf_dfu_settings.o(i.nrf_dfu_settings_calculate_crc)
    nrf_dfu_settings_init                    0x0007a919   Thumb Code    64  nrf_dfu_settings.o(i.nrf_dfu_settings_init)
    nrf_dfu_settings_write                   0x0007a965   Thumb Code    70  nrf_dfu_settings.o(i.nrf_dfu_settings_write)
    nrf_dfu_transports_close                 0x0007a9c1   Thumb Code    36  nrf_dfu_transport.o(i.nrf_dfu_transports_close)
    nrf_dfu_transports_init                  0x0007a9ed   Thumb Code    34  nrf_dfu_transport.o(i.nrf_dfu_transports_init)
    nrf_dfu_wait                             0x0007aa19   Thumb Code     4  nrf_dfu.o(i.nrf_dfu_wait)
    nrf_drv_common_irq_enable                0x0007aa1d   Thumb Code    56  nrf_drv_common.o(i.nrf_drv_common_irq_enable)
    nrf_drv_twi_disable                      0x0007aa55   Thumb Code    44  nrf_drv_twi.o(i.nrf_drv_twi_disable)
    nrf_drv_twi_enable                       0x0007aa85   Thumb Code    28  nrf_drv_twi.o(i.nrf_drv_twi_enable)
    nrf_drv_twi_init                         0x0007aaa5   Thumb Code   134  nrf_drv_twi.o(i.nrf_drv_twi_init)
    nrf_drv_twi_rx                           0x0007ab31   Thumb Code    32  nrf_drv_twi.o(i.nrf_drv_twi_rx)
    nrf_drv_twi_tx                           0x0007ab55   Thumb Code    36  nrf_drv_twi.o(i.nrf_drv_twi_tx)
    nrf_drv_twi_uninit                       0x0007ab79   Thumb Code   102  nrf_drv_twi.o(i.nrf_drv_twi_uninit)
    nrf_drv_twi_xfer                         0x0007abe5   Thumb Code    40  nrf_drv_twi.o(i.nrf_drv_twi_xfer)
    nrf_nvmc_page_erase                      0x0007ac45   Thumb Code    38  nrf_nvmc.o(i.nrf_nvmc_page_erase)
    nrf_nvmc_write_words                     0x0007ac75   Thumb Code    52  nrf_nvmc.o(i.nrf_nvmc_write_words)
    pb_decode                                0x0007b6bb   Thumb Code    30  pb_decode.o(i.pb_decode)
    pb_decode_fixed32                        0x0007b6d9   Thumb Code    32  pb_decode.o(i.pb_decode_fixed32)
    pb_decode_fixed64                        0x0007b6f9   Thumb Code    92  pb_decode.o(i.pb_decode_fixed64)
    pb_decode_noinit                         0x0007b755   Thumb Code   390  pb_decode.o(i.pb_decode_noinit)
    pb_decode_svarint                        0x0007b8db   Thumb Code    58  pb_decode.o(i.pb_decode_svarint)
    pb_decode_tag                            0x0007b915   Thumb Code    60  pb_decode.o(i.pb_decode_tag)
    pb_decode_varint                         0x0007b951   Thumb Code    74  pb_decode.o(i.pb_decode_varint)
    pb_field_iter_begin                      0x0007ba0d   Thumb Code    34  pb_common.o(i.pb_field_iter_begin)
    pb_field_iter_find                       0x0007ba2f   Thumb Code    46  pb_common.o(i.pb_field_iter_find)
    pb_field_iter_next                       0x0007ba5d   Thumb Code   128  pb_common.o(i.pb_field_iter_next)
    pb_istream_from_buffer                   0x0007bb81   Thumb Code    14  pb_decode.o(i.pb_istream_from_buffer)
    pb_make_string_substream                 0x0007bb95   Thumb Code    54  pb_decode.o(i.pb_make_string_substream)
    pb_read                                  0x0007bbf1   Thumb Code    84  pb_decode.o(i.pb_read)
    pb_skip_field                            0x0007bc69   Thumb Code    90  pb_decode.o(i.pb_skip_field)
    sha256_final                             0x0007c19d   Thumb Code   272  sha256.o(i.sha256_final)
    sha256_init                              0x0007c2ad   Thumb Code    50  sha256.o(i.sha256_init)
    sha256_transform                         0x0007c301   Thumb Code   294  sha256.o(i.sha256_transform)
    sha256_update                            0x0007c42d   Thumb Code    84  sha256.o(i.sha256_update)
    softdevice_ble_evt_handler_set           0x0007c481   Thumb Code    14  softdevice_handler.o(i.softdevice_ble_evt_handler_set)
    softdevice_enable                        0x0007c495   Thumb Code    14  softdevice_handler.o(i.softdevice_enable)
    softdevice_enable_get_default_config     0x0007c4a9   Thumb Code    38  softdevice_handler.o(i.softdevice_enable_get_default_config)
    softdevice_evt_get                       0x0007c4d1   Thumb Code    34  softdevice_handler_appsh.o(i.softdevice_evt_get)
    softdevice_evt_schedule                  0x0007c4f9   Thumb Code    36  softdevice_handler_appsh.o(i.softdevice_evt_schedule)
    softdevice_fault_handler                 0x0007c525   Thumb Code     4  softdevice_handler.o(i.softdevice_fault_handler)
    softdevice_handler_init                  0x0007c529   Thumb Code    42  softdevice_handler.o(i.softdevice_handler_init)
    softdevice_sys_evt_handler_set           0x0007c55d   Thumb Code    14  softdevice_handler.o(i.softdevice_sys_evt_handler_set)
    sx150x_led_drv_calc_convert              0x0007c571   Thumb Code   128  sx150x_led_drv_calc.o(i.sx150x_led_drv_calc_convert)
    sx150x_led_drv_calc_fade_supp            0x0007c5f9   Thumb Code    24  sx150x_led_drv_calc.o(i.sx150x_led_drv_calc_fade_supp)
    sx150x_led_drv_calc_init                 0x0007c615   Thumb Code    22  sx150x_led_drv_calc.o(i.sx150x_led_drv_calc_init)
    twi_manager_request                      0x0007c875   Thumb Code    76  twi_manager.o(i.twi_manager_request)
    dfu_init_command_is_debug_default        0x0007cd62   Data           1  dfu-cc.pb.o(.constdata)
    dfu_hash_fields                          0x0007cd64   Data          36  dfu-cc.pb.o(.constdata)
    dfu_init_command_fields                  0x0007cd88   Data         120  dfu-cc.pb.o(.constdata)
    dfu_reset_command_fields                 0x0007ce00   Data          24  dfu-cc.pb.o(.constdata)
    dfu_command_fields                       0x0007ce18   Data          48  dfu-cc.pb.o(.constdata)
    dfu_signed_command_fields                0x0007ce48   Data          48  dfu-cc.pb.o(.constdata)
    dfu_packet_fields                        0x0007ce78   Data          36  dfu-cc.pb.o(.constdata)
    pk                                       0x0007cf0c   Data          64  dfu_public_key.o(.constdata)
    Region$$Table$$Base                      0x0007d224   Number         0  anon$$obj.o(Region$$Table)
    Region$$Table$$Limit                     0x0007d244   Number         0  anon$$obj.o(Region$$Table)
    dfu_trans$$Base                          0x0007d244   Number         0  nrf_ble_dfu.o(dfu_trans)
    dfu_trans$$Limit                         0x0007d24c   Number         0  nrf_ble_dfu.o(dfu_trans)
    m_mbr_params_page                        0x0007e000   Data        4096  nrf_dfu_settings.o(.ARM.__AT_0x0007E000)
    m_dfu_settings_buffer                    0x0007f000   Data        4096  nrf_dfu_settings.o(.ARM.__AT_0x0007F000)
    m_uicr_bootloader_start_address          0x10001014   Data           4  nrf_bootloader_info.o(.ARM.__AT_0x10001014)
    m_uicr_mbr_params_page_address           0x10001018   Data           4  nrf_dfu_settings.o(.ARM.__AT_0x10001018)
    Image$$RW_IRAM1$$Base                    0x20002c00   Number         0  anon$$obj.o ABSOLUTE
    SystemCoreClock                          0x20002cf0   Data           4  system_nrf52.o(.data)
    fs_data$$Base                            0x20002cf4   Number         0  nrf_dfu_flash.o(fs_data)
    fs_data$$Limit                           0x20002d04   Number         0  nrf_dfu_flash.o(fs_data)
    s_dfu_settings                           0x200037f0   Data         348  nrf_dfu_settings.o(.bss)
    nrf_nvic_state                           0x2000394c   Data          12  app_util_platform.o(.bss)
    _SEGGER_RTT                              0x20003dd0   Data         120  segger_rtt.o(.bss)
    __initial_sp                             0x20005e48   Data           0  arm_startup_nrf52.o(STACK)



==============================================================================

Memory Map of the image

  Image Entry point : 0x00075401

  Load Region LR_IROM1 (Base: 0x00075000, Size: 0x00008350, Max: 0x00009000, ABSOLUTE)

    Execution Region ER_IROM1 (Base: 0x00075000, Size: 0x0000824c, Max: 0x00009000, ABSOLUTE)

    Base Addr    Size         Type   Attr      Idx    E Section Name        Object

    0x00075000   0x00000400   Data   RO         3636    RESET               arm_startup_nrf52.o
    0x00075400   0x00000000   Code   RO         3789  * .ARM.Collect$$$$00000000  mc_w.l(entry.o)
    0x00075400   0x00000004   Code   RO         3821    .ARM.Collect$$$$00000001  mc_w.l(entry2.o)
    0x00075404   0x00000004   Code   RO         3824    .ARM.Collect$$$$00000004  mc_w.l(entry5.o)
    0x00075408   0x00000000   Code   RO         3826    .ARM.Collect$$$$00000008  mc_w.l(entry7b.o)
    0x00075408   0x00000000   Code   RO         3828    .ARM.Collect$$$$0000000A  mc_w.l(entry8b.o)
    0x00075408   0x00000008   Code   RO         3829    .ARM.Collect$$$$0000000B  mc_w.l(entry9a.o)
    0x00075410   0x00000000   Code   RO         3831    .ARM.Collect$$$$0000000D  mc_w.l(entry10a.o)
    0x00075410   0x00000000   Code   RO         3833    .ARM.Collect$$$$0000000F  mc_w.l(entry11a.o)
    0x00075410   0x00000004   Code   RO         3822    .ARM.Collect$$$$00002712  mc_w.l(entry2.o)
    0x00075414   0x00000034   Code   RO         1704    .emb_text           nrf_bootloader_app_start.o
    0x00075448   0x00000024   Code   RO         3637    .text               arm_startup_nrf52.o
    0x0007546c   0x00000062   Code   RO         3797    .text               mc_w.l(uldiv.o)
    0x000754ce   0x0000001e   Code   RO         3799    .text               mc_w.l(llshl.o)
    0x000754ec   0x00000024   Code   RO         3801    .text               mc_w.l(memcpya.o)
    0x00075510   0x00000024   Code   RO         3805    .text               mc_w.l(memseta.o)
    0x00075534   0x0000001a   Code   RO         3811    .text               mc_w.l(memcmp.o)
    0x0007554e   0x00000012   Code   RO         3813    .text               mc_w.l(strcpy.o)
    0x00075560   0x00000032   Code   RO         3817    .text               mf_w.l(dfixui.o)
    0x00075592   0x00000026   Code   RO         3819    .text               mf_w.l(f2d.o)
    0x000755b8   0x00000020   Code   RO         3836    .text               mc_w.l(llushr.o)
    0x000755d8   0x00000000   Code   RO         3838    .text               mc_w.l(iusefp.o)
    0x000755d8   0x0000014e   Code   RO         3840    .text               mf_w.l(dadd.o)
    0x00075726   0x00000002   PAD
    0x00075728   0x00000088   Code   RO         3842    .text               mf_w.l(drnd.o)
    0x000757b0   0x00000030   Code   RO         3844    .text               mf_w.l(cdcmple.o)
    0x000757e0   0x00000030   Code   RO         3846    .text               mf_w.l(cdrcmple.o)
    0x00075810   0x00000024   Code   RO         3848    .text               mc_w.l(init.o)
    0x00075834   0x00000024   Code   RO         3850    .text               mc_w.l(llsshr.o)
    0x00075858   0x000000ba   Code   RO         3852    .text               mf_w.l(depilogue.o)
    0x00075912   0x000000ca   Code   RO         3724    .text.XYcZ_add      micro_ecc_lib_nrf52.lib(micro_ecc_lib_uECC.c.o)
    0x000759dc   0x0000003e   Code   RO         3725    .text.apply_z       micro_ecc_lib_nrf52.lib(micro_ecc_lib_uECC.c.o)
    0x00075a1a   0x0000000c   Code   RO         3680    .text.bcopy         micro_ecc_lib_nrf52.lib(micro_ecc_lib_uECC.c.o)
    0x00075a26   0x00000088   Code   RO         3697    .text.bits2int      micro_ecc_lib_nrf52.lib(micro_ecc_lib_uECC.c.o)
    0x00075aae   0x00000154   Code   RO         3720    .text.double_jacobian_default  micro_ecc_lib_nrf52.lib(micro_ecc_lib_uECC.c.o)
    0x00075c02   0x00000002   PAD
    0x00075c04   0x00000008   Code   RO         3732    .text.uECC_secp256r1  micro_ecc_lib_nrf52.lib(micro_ecc_lib_uECC.c.o)
    0x00075c0c   0x000002d4   Code   RO         3745    .text.uECC_verify   micro_ecc_lib_nrf52.lib(micro_ecc_lib_uECC.c.o)
    0x00075ee0   0x00000058   Code   RO         3686    .text.uECC_vli_add  micro_ecc_lib_nrf52.lib(micro_ecc_lib_uECC.c.o)
    0x00075f38   0x00000018   Code   RO         3695    .text.uECC_vli_clear  micro_ecc_lib_nrf52.lib(micro_ecc_lib_uECC.c.o)
    0x00075f50   0x0000002a   Code   RO         3681    .text.uECC_vli_cmp_unsafe  micro_ecc_lib_nrf52.lib(micro_ecc_lib_uECC.c.o)
    0x00075f7a   0x0000002a   Code   RO         3706    .text.uECC_vli_equal  micro_ecc_lib_nrf52.lib(micro_ecc_lib_uECC.c.o)
    0x00075fa4   0x0000001e   Code   RO         3698    .text.uECC_vli_isZero  micro_ecc_lib_nrf52.lib(micro_ecc_lib_uECC.c.o)
    0x00075fc2   0x00000002   PAD
    0x00075fc4   0x0000013c   Code   RO         3714    .text.uECC_vli_mmod  micro_ecc_lib_nrf52.lib(micro_ecc_lib_uECC.c.o)
    0x00076100   0x00000032   Code   RO         3712    .text.uECC_vli_modAdd  micro_ecc_lib_nrf52.lib(micro_ecc_lib_uECC.c.o)
    0x00076132   0x0000010c   Code   RO         3726    .text.uECC_vli_modInv  micro_ecc_lib_nrf52.lib(micro_ecc_lib_uECC.c.o)
    0x0007623e   0x00000024   Code   RO         3715    .text.uECC_vli_modMult  micro_ecc_lib_nrf52.lib(micro_ecc_lib_uECC.c.o)
    0x00076262   0x00000020   Code   RO         3716    .text.uECC_vli_modMult_fast  micro_ecc_lib_nrf52.lib(micro_ecc_lib_uECC.c.o)
    0x00076282   0x00000020   Code   RO         3718    .text.uECC_vli_modSquare_fast  micro_ecc_lib_nrf52.lib(micro_ecc_lib_uECC.c.o)
    0x000762a2   0x00000024   Code   RO         3713    .text.uECC_vli_modSub  micro_ecc_lib_nrf52.lib(micro_ecc_lib_uECC.c.o)
    0x000762c6   0x00000312   Code   RO         3689    .text.uECC_vli_mult  micro_ecc_lib_nrf52.lib(micro_ecc_lib_uECC.c.o)
    0x000765d8   0x00000044   Code   RO         3701    .text.uECC_vli_numBits  micro_ecc_lib_nrf52.lib(micro_ecc_lib_uECC.c.o)
    0x0007661c   0x0000001a   Code   RO         3708    .text.uECC_vli_rshift1  micro_ecc_lib_nrf52.lib(micro_ecc_lib_uECC.c.o)
    0x00076636   0x0000001a   Code   RO         3702    .text.uECC_vli_set  micro_ecc_lib_nrf52.lib(micro_ecc_lib_uECC.c.o)
    0x00076650   0x0000028c   Code   RO         3690    .text.uECC_vli_square  micro_ecc_lib_nrf52.lib(micro_ecc_lib_uECC.c.o)
    0x000768dc   0x00000004   PAD
    0x000768e0   0x00000060   Code   RO         3688    .text.uECC_vli_sub  micro_ecc_lib_nrf52.lib(micro_ecc_lib_uECC.c.o)
    0x00076940   0x00000012   Code   RO         3699    .text.uECC_vli_testBit  micro_ecc_lib_nrf52.lib(micro_ecc_lib_uECC.c.o)
    0x00076952   0x00000002   PAD
    0x00076954   0x000001b0   Code   RO         3705    .text.vli_mmod_fast_secp256r1  micro_ecc_lib_nrf52.lib(micro_ecc_lib_uECC.c.o)
    0x00076b04   0x0000003a   Code   RO         3709    .text.vli_modInv_update  micro_ecc_lib_nrf52.lib(micro_ecc_lib_uECC.c.o)
    0x00076b3e   0x0000005a   Code   RO         3719    .text.x_side_default  micro_ecc_lib_nrf52.lib(micro_ecc_lib_uECC.c.o)
    0x00076b98   0x00000016   Code   RO         2410    i.NVIC_ClearPendingIRQ  app_timer.o
    0x00076bae   0x00000016   Code   RO         2411    i.NVIC_EnableIRQ    app_timer.o
    0x00076bc4   0x00000016   Code   RO         2412    i.NVIC_SetPendingIRQ  app_timer.o
    0x00076bda   0x00000020   Code   RO         2413    i.NVIC_SetPriority  app_timer.o
    0x00076bfa   0x00000002   PAD
    0x00076bfc   0x00000024   Code   RO          316    i.NVIC_SystemReset  main.o
    0x00076c20   0x00000024   Code   RO         2414    i.RTC1_IRQHandler   app_timer.o
    0x00076c44   0x00000024   Code   RO         3472    i.SEGGER_RTT_Write  segger_rtt.o
    0x00076c68   0x0000005c   Code   RO         3473    i.SEGGER_RTT_WriteNoLock  segger_rtt.o
    0x00076cc4   0x00000016   Code   RO         3597    i.SEGGER_RTT_printf  segger_rtt_printf.o
    0x00076cda   0x00000196   Code   RO         3598    i.SEGGER_RTT_vprintf  segger_rtt_printf.o
    0x00076e70   0x00000010   Code   RO          882    i.SPIM0_SPIS0_TWIM0_TWIS0_SPI0_TWI0_IRQHandler  nrf_drv_twi.o
    0x00076e80   0x00000004   Code   RO         2415    i.SWI0_EGU0_IRQHandler  app_timer.o
    0x00076e84   0x00000024   Code   RO         3013    i.SWI2_EGU2_IRQHandler  softdevice_handler.o
    0x00076ea8   0x0000029c   Code   RO         3645    i.SystemInit        system_nrf52.o
    0x00077144   0x00000068   Code   RO         3476    i._DoInit           segger_rtt.o
    0x000771ac   0x00000016   Code   RO         3477    i._GetAvailWriteSpace  segger_rtt.o
    0x000771c2   0x00000002   PAD
    0x000771c4   0x000000c6   Code   RO         3599    i._PrintInt         segger_rtt_printf.o
    0x0007728a   0x00000002   PAD
    0x0007728c   0x000000d4   Code   RO         3600    i._PrintUnsigned    segger_rtt_printf.o
    0x00077360   0x0000003e   Code   RO         3601    i._StoreChar        segger_rtt_printf.o
    0x0007739e   0x0000005a   Code   RO         3479    i._WriteBlocking    segger_rtt.o
    0x000773f8   0x0000003e   Code   RO         3480    i._WriteNoCheck     segger_rtt.o
    0x00077436   0x00000002   PAD
    0x00077438   0x000000e0   Code   RO         3785    i.__hardfp_round    m_wm.l(round.o)
    0x00077518   0x0000000e   Code   RO         3856    i.__scatterload_copy  mc_w.l(handlers.o)
    0x00077526   0x00000002   Code   RO         3857    i.__scatterload_null  mc_w.l(handlers.o)
    0x00077528   0x0000000e   Code   RO         3858    i.__scatterload_zeroinit  mc_w.l(handlers.o)
    0x00077536   0x00000002   PAD
    0x00077538   0x00000024   Code   RO         3014    i.__sd_nvic_app_accessible_irq  softdevice_handler.o
    0x0007755c   0x00000182   Code   RO         1256    i.adv_data_encode   ble_advdata.o
    0x000776de   0x00000002   PAD
    0x000776e0   0x00000080   Code   RO         1507    i.advertising_start  nrf_ble_dfu.o
    0x00077760   0x00000004   Code   RO          317    i.app_error_fault_handler  main.o
    0x00077764   0x00000004   Code   RO          318    i.app_error_handler_bare  main.o
    0x00077768   0x000000a0   Code   RO         2359    i.app_sched_event_put  app_scheduler.o
    0x00077808   0x00000040   Code   RO         2360    i.app_sched_execute  app_scheduler.o
    0x00077848   0x0000002c   Code   RO         2361    i.app_sched_init    app_scheduler.o
    0x00077874   0x00000024   Code   RO         2418    i.app_timer_create  app_timer.o
    0x00077898   0x00000018   Code   RO         2563    i.app_timer_evt_get  app_timer_appsh.o
    0x000778b0   0x00000018   Code   RO         2564    i.app_timer_evt_schedule  app_timer_appsh.o
    0x000778c8   0x00000070   Code   RO         2419    i.app_timer_init    app_timer.o
    0x00077938   0x00000088   Code   RO         2420    i.app_timer_start   app_timer.o
    0x000779c0   0x00000020   Code   RO         2421    i.app_timer_stop    app_timer.o
    0x000779e0   0x00000048   Code   RO         2592    i.app_util_critical_region_enter  app_util_platform.o
    0x00077a28   0x00000034   Code   RO         2593    i.app_util_critical_region_exit  app_util_platform.o
    0x00077a5c   0x00000068   Code   RO         1257    i.ble_advdata_set   ble_advdata.o
    0x00077ac4   0x00000058   Code   RO         1373    i.ble_conn_params_init  ble_conn_params.o
    0x00077b1c   0x00000084   Code   RO         1374    i.ble_conn_params_on_ble_evt  ble_conn_params.o
    0x00077ba0   0x0000000c   Code   RO         1375    i.ble_conn_params_stop  ble_conn_params.o
    0x00077bac   0x00000060   Code   RO         1258    i.ble_device_addr_encode  ble_advdata.o
    0x00077c0c   0x0000006c   Code   RO         1508    i.ble_dfu_init      nrf_ble_dfu.o
    0x00077c78   0x00000054   Code   RO         1509    i.ble_dfu_transport_close  nrf_ble_dfu.o
    0x00077ccc   0x000000c0   Code   RO         1510    i.ble_dfu_transport_init  nrf_ble_dfu.o
    0x00077d8c   0x00000012   Code   RO         1511    i.ble_evt_dispatch  nrf_ble_dfu.o
    0x00077d9e   0x00000008   Code   RO         1446    i.ble_srv_is_notification_enabled  ble_srv_common.o
    0x00077da6   0x0000001c   Code   RO         3195    i.buf_read          pb_decode.o
    0x00077dc2   0x00000002   PAD
    0x00077dc4   0x00000020   Code   RO         2729    i.check_config      fstorage.o
    0x00077de4   0x000000ac   Code   RO         2423    i.compare_reg_update  app_timer.o
    0x00077e90   0x00000088   Code   RO         1259    i.conn_int_encode   ble_advdata.o
    0x00077f18   0x00000004   Code   RO         1512    i.conn_params_error_handler  nrf_ble_dfu.o
    0x00077f1c   0x0000005c   Code   RO         1376    i.conn_params_negotiation  ble_conn_params.o
    0x00077f78   0x0000003c   Code   RO         2641    i.crc32_compute     crc32.o
    0x00077fb4   0x0000007e   Code   RO         3196    i.decode_callback_field  pb_decode.o
    0x00078032   0x0000001a   Code   RO         3197    i.decode_field      pb_decode.o
    0x0007804c   0x000000e0   Code   RO         3198    i.decode_static_field  pb_decode.o
    0x0007812c   0x00000084   Code   RO         1513    i.dfu_ctrl_pt_add   nrf_ble_dfu.o
    0x000781b0   0x00000010   Code   RO           39    i.dfu_data_write_handler  dfu_req_handling.o
    0x000781c0   0x00000054   Code   RO           40    i.dfu_decode_commmand  dfu_req_handling.o
    0x00078214   0x00000190   Code   RO           41    i.dfu_handle_prevalidate  dfu_req_handling.o
    0x000783a4   0x00000082   Code   RO         1514    i.dfu_pkt_char_add  nrf_ble_dfu.o
    0x00078426   0x00000002   PAD
    0x00078428   0x00000018   Code   RO         1957    i.dfu_settings_write_callback  nrf_dfu_settings.o
    0x00078440   0x00000054   Code   RO         1196    i.diff_above_limit  sx150x_led_drv_calc.o
    0x00078494   0x000002a4   Code   RO         1047    i.drv_ext_light_init  drv_ext_light.o
    0x00078738   0x00000084   Code   RO         1053    i.drv_ext_light_rgb_sequence  drv_ext_light.o
    0x000787bc   0x00000030   Code   RO          427    i.drv_sx1509_clock_modify  drv_sx1509.o
    0x000787ec   0x00000024   Code   RO          428    i.drv_sx1509_close  drv_sx1509.o
    0x00078810   0x0000002e   Code   RO          430    i.drv_sx1509_data_modify  drv_sx1509.o
    0x0007883e   0x0000002e   Code   RO          436    i.drv_sx1509_dir_modify  drv_sx1509.o
    0x0007886c   0x0000000c   Code   RO          441    i.drv_sx1509_init   drv_sx1509.o
    0x00078878   0x0000002e   Code   RO          443    i.drv_sx1509_inpbufdisable_modify  drv_sx1509.o
    0x000788a6   0x0000002e   Code   RO          452    i.drv_sx1509_leddriverenable_modify  drv_sx1509.o
    0x000788d4   0x00000020   Code   RO          460    i.drv_sx1509_misc_modify  drv_sx1509.o
    0x000788f4   0x00000062   Code   RO          462    i.drv_sx1509_onoffcfgx_modify  drv_sx1509.o
    0x00078956   0x00000002   PAD
    0x00078958   0x0000002c   Code   RO          463    i.drv_sx1509_open   drv_sx1509.o
    0x00078984   0x0000002e   Code   RO          465    i.drv_sx1509_opendrain_modify  drv_sx1509.o
    0x000789b2   0x0000002e   Code   RO          469    i.drv_sx1509_pulldown_modify  drv_sx1509.o
    0x000789e0   0x0000002e   Code   RO          471    i.drv_sx1509_pullup_modify  drv_sx1509.o
    0x00078a0e   0x00000002   PAD
    0x00078a10   0x00000034   Code   RO          473    i.drv_sx1509_reset  drv_sx1509.o
    0x00078a44   0x0000004e   Code   RO          475    i.drv_sx1509_risefallcfgx_modify  drv_sx1509.o
    0x00078a92   0x0000004a   Code   RO         2661    i.ecc_p256_verify   ecc.o
    0x00078adc   0x00000040   Code   RO         2424    i.elapsed_ticks_acquire  app_timer.o
    0x00078b1c   0x00000074   Code   RO         2730    i.fs_erase          fstorage.o
    0x00078b90   0x00000028   Code   RO         1836    i.fs_evt_handler    nrf_dfu_flash.o
    0x00078bb8   0x00000014   Code   RO         2731    i.fs_fake_init      fstorage.o
    0x00078bcc   0x00000080   Code   RO         2734    i.fs_store          fstorage.o
    0x00078c4c   0x00000068   Code   RO         2735    i.fs_sys_event_handler  fstorage.o
    0x00078cb4   0x00000070   Code   RO         1515    i.gap_params_init   nrf_ble_dfu.o
    0x00078d24   0x0000007c   Code   RO         3015    i.intern_softdevice_events_execute  softdevice_handler.o
    0x00078da0   0x00000068   Code   RO         1055    i.ioext_osc_start_stop  drv_ext_light.o
    0x00078e08   0x000000b6   Code   RO          883    i.irq_handler_twi   nrf_drv_twi.o
    0x00078ebe   0x00000002   PAD
    0x00078ec0   0x0000001c   Code   RO         1377    i.is_conn_params_ok  ble_conn_params.o
    0x00078edc   0x0000000c   Code   RO         2663    i.is_word_aligned   ecc.o
    0x00078ee8   0x0000002e   Code   RO         3199    i.iter_from_extension  pb_decode.o
    0x00078f16   0x00000002   PAD
    0x00078f18   0x000000a8   Code   RO         2425    i.list_deletions_handler  app_timer.o
    0x00078fc0   0x000000b8   Code   RO         2426    i.list_insertions_handler  app_timer.o
    0x00079078   0x00000068   Code   RO         1056    i.m_io_ext_oper_mode_chk  drv_ext_light.o
    0x000790e0   0x000002b4   Code   RO         1057    i.m_ioext_cmd_process  drv_ext_light.o
    0x00079394   0x00000104   Code   RO         1059    i.m_ioext_color_select_cmd_send  drv_ext_light.o
    0x00079498   0x0000015c   Code   RO         1060    i.m_ioext_led_drv_ctrl  drv_ext_light.o
    0x000795f4   0x0000009c   Code   RO         1061    i.m_ioext_osc_status_change  drv_ext_light.o
    0x00079690   0x00000018   Code   RO         1062    i.m_is_monochrome_light  drv_ext_light.o
    0x000796a8   0x00000014   Code   RO         1063    i.m_is_rgb_light    drv_ext_light.o
    0x000796bc   0x00000068   Code   RO         1064    i.m_led_driver_sequence_restart  drv_ext_light.o
    0x00079724   0x00000108   Code   RO         1065    i.m_light_timer_handler  drv_ext_light.o
    0x0007982c   0x00000030   Code   RO          478    i.m_onoffcfgx_base_addr_get  drv_sx1509.o
    0x0007985c   0x00000010   Code   RO         1066    i.m_osc_on_margin_calculate  drv_ext_light.o
    0x0007986c   0x0000000c   Code   RO         1067    i.m_pin_within_range_check  drv_ext_light.o
    0x00079878   0x00000084   Code   RO         1068    i.m_port_mask_create  drv_ext_light.o
    0x000798fc   0x0000001e   Code   RO          479    i.m_risefallcfgx_base_addr_get  drv_sx1509.o
    0x0007991a   0x00000002   PAD
    0x0007991c   0x00000050   Code   RO          319    i.main              main.o
    0x0007996c   0x00000064   Code   RO         1260    i.manuf_specific_data_encode  ble_advdata.o
    0x000799d0   0x0000002c   Code   RO          480    i.multi_byte_register_set  drv_sx1509.o
    0x000799fc   0x0000009c   Code   RO         1261    i.name_encode       ble_advdata.o
    0x00079a98   0x0000002a   Code   RO         1705    i.nrf_bootloader_app_start  nrf_bootloader_app_start.o
    0x00079ac2   0x00000008   Code   RO         1665    i.nrf_bootloader_init  nrf_bootloader.o
    0x00079aca   0x0000004c   Code   RO         2912    i.nrf_crypto_hash_compute  nrf_crypto.o
    0x00079b16   0x0000002e   Code   RO         2917    i.nrf_crypto_verify  nrf_crypto.o
    0x00079b44   0x0000008c   Code   RO           42    i.nrf_delay_us      dfu_req_handling.o
    0x00079bd0   0x0000008c   Code   RO          481    i.nrf_delay_us      drv_sx1509.o
    0x00079c5c   0x0000008c   Code   RO          884    i.nrf_delay_us      nrf_drv_twi.o
    0x00079ce8   0x0000008c   Code   RO         1516    i.nrf_delay_us      nrf_ble_dfu.o
    0x00079d74   0x0000008c   Code   RO         1753    i.nrf_delay_us      nrf_dfu.o
    0x00079e00   0x0000008c   Code   RO         2427    i.nrf_delay_us      app_timer.o
    0x00079e8c   0x000000ac   Code   RO         2048    i.nrf_dfu_app_continue  nrf_dfu_utils.o
    0x00079f38   0x00000030   Code   RO         2049    i.nrf_dfu_app_is_valid  nrf_dfu_utils.o
    0x00079f68   0x00000044   Code   RO         2050    i.nrf_dfu_bl_continue  nrf_dfu_utils.o
    0x00079fac   0x0000010c   Code   RO           43    i.nrf_dfu_command_req  dfu_req_handling.o
    0x0007a0b8   0x00000034   Code   RO         2051    i.nrf_dfu_continue  nrf_dfu_utils.o
    0x0007a0ec   0x00000078   Code   RO         2052    i.nrf_dfu_continue_bank  nrf_dfu_utils.o
    0x0007a164   0x00000264   Code   RO           44    i.nrf_dfu_data_req  dfu_req_handling.o
    0x0007a3c8   0x0000003c   Code   RO         1754    i.nrf_dfu_enter_check  nrf_dfu.o
    0x0007a404   0x0000006c   Code   RO         2053    i.nrf_dfu_find_cache  nrf_dfu_utils.o
    0x0007a470   0x00000098   Code   RO         1837    i.nrf_dfu_flash_erase  nrf_dfu_flash.o
    0x0007a508   0x0000002c   Code   RO         1839    i.nrf_dfu_flash_init  nrf_dfu_flash.o
    0x0007a534   0x0000008c   Code   RO         1840    i.nrf_dfu_flash_store  nrf_dfu_flash.o
    0x0007a5c0   0x000000a8   Code   RO         1755    i.nrf_dfu_init      nrf_dfu.o
    0x0007a668   0x00000018   Code   RO         2054    i.nrf_dfu_invalidate_bank  nrf_dfu_utils.o
    0x0007a680   0x0000001c   Code   RO         1905    i.nrf_dfu_mbr_compare  nrf_dfu_mbr.o
    0x0007a69c   0x00000016   Code   RO         1906    i.nrf_dfu_mbr_copy_bl  nrf_dfu_mbr.o
    0x0007a6b2   0x00000002   PAD
    0x0007a6b4   0x00000024   Code   RO         1907    i.nrf_dfu_mbr_copy_sd  nrf_dfu_mbr.o
    0x0007a6d8   0x00000018   Code   RO         1908    i.nrf_dfu_mbr_init_sd  nrf_dfu_mbr.o
    0x0007a6f0   0x00000108   Code   RO           45    i.nrf_dfu_postvalidate  dfu_req_handling.o
    0x0007a7f8   0x00000050   Code   RO           46    i.nrf_dfu_req_handler_init  dfu_req_handling.o
    0x0007a848   0x00000040   Code   RO           47    i.nrf_dfu_req_handler_on_req  dfu_req_handling.o
    0x0007a888   0x00000080   Code   RO         2055    i.nrf_dfu_sd_continue_impl  nrf_dfu_utils.o
    0x0007a908   0x00000010   Code   RO         1958    i.nrf_dfu_settings_calculate_crc  nrf_dfu_settings.o
    0x0007a918   0x0000004c   Code   RO         1959    i.nrf_dfu_settings_init  nrf_dfu_settings.o
    0x0007a964   0x0000005c   Code   RO         1960    i.nrf_dfu_settings_write  nrf_dfu_settings.o
    0x0007a9c0   0x0000002c   Code   RO         2014    i.nrf_dfu_transports_close  nrf_dfu_transport.o
    0x0007a9ec   0x0000002c   Code   RO         2015    i.nrf_dfu_transports_init  nrf_dfu_transport.o
    0x0007aa18   0x00000004   Code   RO         1756    i.nrf_dfu_wait      nrf_dfu.o
    0x0007aa1c   0x00000038   Code   RO         2116    i.nrf_drv_common_irq_enable  nrf_drv_common.o
    0x0007aa54   0x00000030   Code   RO          886    i.nrf_drv_twi_disable  nrf_drv_twi.o
    0x0007aa84   0x00000020   Code   RO          887    i.nrf_drv_twi_enable  nrf_drv_twi.o
    0x0007aaa4   0x0000008c   Code   RO          888    i.nrf_drv_twi_init  nrf_drv_twi.o
    0x0007ab30   0x00000024   Code   RO          889    i.nrf_drv_twi_rx    nrf_drv_twi.o
    0x0007ab54   0x00000024   Code   RO          892    i.nrf_drv_twi_tx    nrf_drv_twi.o
    0x0007ab78   0x0000006c   Code   RO          893    i.nrf_drv_twi_uninit  nrf_drv_twi.o
    0x0007abe4   0x0000002c   Code   RO          894    i.nrf_drv_twi_xfer  nrf_drv_twi.o
    0x0007ac10   0x00000022   Code   RO          320    i.nrf_gpio_cfg      main.o
    0x0007ac32   0x00000002   PAD
    0x0007ac34   0x00000010   Code   RO          895    i.nrf_gpio_pin_set  nrf_drv_twi.o
    0x0007ac44   0x00000030   Code   RO         2208    i.nrf_nvmc_page_erase  nrf_nvmc.o
    0x0007ac74   0x0000003c   Code   RO         2212    i.nrf_nvmc_write_words  nrf_nvmc.o
    0x0007acb0   0x0000000a   Code   RO          896    i.nrf_twi_event_check  nrf_drv_twi.o
    0x0007acba   0x0000000c   Code   RO          897    i.nrf_twi_event_clear  nrf_drv_twi.o
    0x0007acc6   0x00000002   PAD
    0x0007acc8   0x000000d8   Code   RO         1517    i.on_ble_evt        nrf_ble_dfu.o
    0x0007ada0   0x000000f8   Code   RO         1518    i.on_ctrl_pt_write  nrf_ble_dfu.o
    0x0007ae98   0x00000028   Code   RO           48    i.on_dfu_complete   dfu_req_handling.o
    0x0007aec0   0x00000054   Code   RO         2736    i.on_operation_success  fstorage.o
    0x0007af14   0x00000094   Code   RO         1519    i.on_rw_authorize_req  nrf_ble_dfu.o
    0x0007afa8   0x00000060   Code   RO         1520    i.on_write          nrf_ble_dfu.o
    0x0007b008   0x00000244   Code   RO         1197    i.optimal_time_settings_onoff_calculate  sx150x_led_drv_calc.o
    0x0007b24c   0x0000029c   Code   RO         1198    i.optimal_time_settings_risefall_calculate  sx150x_led_drv_calc.o
    0x0007b4e8   0x0000003e   Code   RO         3201    i.pb_dec_bytes      pb_decode.o
    0x0007b526   0x00000006   Code   RO         3202    i.pb_dec_fixed32    pb_decode.o
    0x0007b52c   0x00000006   Code   RO         3203    i.pb_dec_fixed64    pb_decode.o
    0x0007b532   0x0000003e   Code   RO         3204    i.pb_dec_string     pb_decode.o
    0x0007b570   0x00000040   Code   RO         3205    i.pb_dec_submessage  pb_decode.o
    0x0007b5b0   0x00000058   Code   RO         3206    i.pb_dec_svarint    pb_decode.o
    0x0007b608   0x00000058   Code   RO         3207    i.pb_dec_uvarint    pb_decode.o
    0x0007b660   0x0000005a   Code   RO         3208    i.pb_dec_varint     pb_decode.o
    0x0007b6ba   0x0000001e   Code   RO         3209    i.pb_decode         pb_decode.o
    0x0007b6d8   0x00000020   Code   RO         3211    i.pb_decode_fixed32  pb_decode.o
    0x0007b6f8   0x0000005c   Code   RO         3212    i.pb_decode_fixed64  pb_decode.o
    0x0007b754   0x00000186   Code   RO         3213    i.pb_decode_noinit  pb_decode.o
    0x0007b8da   0x0000003a   Code   RO         3214    i.pb_decode_svarint  pb_decode.o
    0x0007b914   0x0000003c   Code   RO         3215    i.pb_decode_tag     pb_decode.o
    0x0007b950   0x0000004a   Code   RO         3216    i.pb_decode_varint  pb_decode.o
    0x0007b99a   0x0000004c   Code   RO         3217    i.pb_decode_varint32  pb_decode.o
    0x0007b9e6   0x00000002   PAD
    0x0007b9e8   0x00000024   Code   RO           49    i.pb_decoding_callback  dfu_req_handling.o
    0x0007ba0c   0x00000022   Code   RO         3168    i.pb_field_iter_begin  pb_common.o
    0x0007ba2e   0x0000002e   Code   RO         3169    i.pb_field_iter_find  pb_common.o
    0x0007ba5c   0x00000080   Code   RO         3170    i.pb_field_iter_next  pb_common.o
    0x0007badc   0x000000a4   Code   RO         3218    i.pb_field_set_to_default  pb_decode.o
    0x0007bb80   0x00000014   Code   RO         3219    i.pb_istream_from_buffer  pb_decode.o
    0x0007bb94   0x00000036   Code   RO         3220    i.pb_make_string_substream  pb_decode.o
    0x0007bbca   0x00000026   Code   RO         3221    i.pb_message_set_to_defaults  pb_decode.o
    0x0007bbf0   0x00000058   Code   RO         3222    i.pb_read           pb_decode.o
    0x0007bc48   0x00000020   Code   RO         3223    i.pb_readbyte       pb_decode.o
    0x0007bc68   0x0000005a   Code   RO         3224    i.pb_skip_field     pb_decode.o
    0x0007bcc2   0x00000002   PAD
    0x0007bcc4   0x0000002c   Code   RO         2737    i.queue_advance     fstorage.o
    0x0007bcf0   0x00000038   Code   RO         2738    i.queue_get_next_free  fstorage.o
    0x0007bd28   0x00000070   Code   RO         2739    i.queue_process     fstorage.o
    0x0007bd98   0x0000001c   Code   RO         2740    i.queue_start       fstorage.o
    0x0007bdb4   0x00000062   Code   RO         3225    i.read_raw_value    pb_decode.o
    0x0007be16   0x00000002   PAD
    0x0007be18   0x00000040   Code   RO          482    i.reg_get           drv_sx1509.o
    0x0007be58   0x00000034   Code   RO          483    i.reg_set           drv_sx1509.o
    0x0007be8c   0x00000058   Code   RO          484    i.register_bits_modify  drv_sx1509.o
    0x0007bee4   0x00000060   Code   RO         1521    i.response_crc_cmd_send  nrf_ble_dfu.o
    0x0007bf44   0x0000006c   Code   RO         1522    i.response_select_object_cmd_send  nrf_ble_dfu.o
    0x0007bfb0   0x00000040   Code   RO         1523    i.response_send     nrf_ble_dfu.o
    0x0007bff0   0x0000003c   Code   RO         2428    i.rtc1_stop         app_timer.o
    0x0007c02c   0x00000074   Code   RO         3017    i.sd_nvic_EnableIRQ  softdevice_handler.o
    0x0007c0a0   0x0000004c   Code   RO         2741    i.send_event        fstorage.o
    0x0007c0ec   0x00000028   Code   RO         1524    i.send_hvx          nrf_ble_dfu.o
    0x0007c114   0x00000088   Code   RO         1262    i.service_data_encode  ble_advdata.o
    0x0007c19c   0x00000110   Code   RO         2969    i.sha256_final      sha256.o
    0x0007c2ac   0x00000054   Code   RO         2970    i.sha256_init       sha256.o
    0x0007c300   0x0000012c   Code   RO         2971    i.sha256_transform  sha256.o
    0x0007c42c   0x00000054   Code   RO         2972    i.sha256_update     sha256.o
    0x0007c480   0x00000014   Code   RO         3018    i.softdevice_ble_evt_handler_set  softdevice_handler.o
    0x0007c494   0x00000014   Code   RO         3019    i.softdevice_enable  softdevice_handler.o
    0x0007c4a8   0x00000026   Code   RO         3020    i.softdevice_enable_get_default_config  softdevice_handler.o
    0x0007c4ce   0x00000002   PAD
    0x0007c4d0   0x00000028   Code   RO         3139    i.softdevice_evt_get  softdevice_handler_appsh.o
    0x0007c4f8   0x0000002c   Code   RO         3140    i.softdevice_evt_schedule  softdevice_handler_appsh.o
    0x0007c524   0x00000004   Code   RO         3021    i.softdevice_fault_handler  softdevice_handler.o
    0x0007c528   0x00000034   Code   RO         3022    i.softdevice_handler_init  softdevice_handler.o
    0x0007c55c   0x00000014   Code   RO         3028    i.softdevice_sys_evt_handler_set  softdevice_handler.o
    0x0007c570   0x00000088   Code   RO         1199    i.sx150x_led_drv_calc_convert  sx150x_led_drv_calc.o
    0x0007c5f8   0x0000001c   Code   RO         1200    i.sx150x_led_drv_calc_fade_supp  sx150x_led_drv_calc.o
    0x0007c614   0x0000001c   Code   RO         1201    i.sx150x_led_drv_calc_init  sx150x_led_drv_calc.o
    0x0007c630   0x0000008c   Code   RO         2429    i.timer_list_handler  app_timer.o
    0x0007c6bc   0x0000003c   Code   RO         2430    i.timer_list_insert  app_timer.o
    0x0007c6f8   0x00000048   Code   RO         2431    i.timer_stop_op_schedule  app_timer.o
    0x0007c740   0x00000084   Code   RO         2432    i.timer_timeouts_check  app_timer.o
    0x0007c7c4   0x000000b0   Code   RO          898    i.twi_clear_bus     nrf_drv_twi.o
    0x0007c874   0x00000050   Code   RO          826    i.twi_manager_request  twi_manager.o
    0x0007c8c4   0x0000001e   Code   RO          899    i.twi_process_error  nrf_drv_twi.o
    0x0007c8e2   0x000000a0   Code   RO          900    i.twi_rx_start_transfer  nrf_drv_twi.o
    0x0007c982   0x00000028   Code   RO          901    i.twi_send_byte     nrf_drv_twi.o
    0x0007c9aa   0x0000010a   Code   RO          902    i.twi_transfer      nrf_drv_twi.o
    0x0007cab4   0x000000a6   Code   RO          903    i.twi_tx_start_transfer  nrf_drv_twi.o
    0x0007cb5a   0x0000008c   Code   RO          904    i.twi_xfer          nrf_drv_twi.o
    0x0007cbe6   0x0000000a   Code   RO         1263    i.uint16_encode     ble_advdata.o
    0x0007cbf0   0x00000012   Code   RO         1525    i.uint32_encode     nrf_ble_dfu.o
    0x0007cc02   0x00000002   PAD
    0x0007cc04   0x00000060   Code   RO         1378    i.update_timeout_handler  ble_conn_params.o
    0x0007cc64   0x00000030   Code   RO         2433    i.user_op_alloc     app_timer.o
    0x0007cc94   0x00000030   Code   RO         1264    i.uuid_list_encode  ble_advdata.o
    0x0007ccc4   0x0000009e   Code   RO         1265    i.uuid_list_sized_encode  ble_advdata.o
    0x0007cd62   0x00000001   Data   RO            1    .constdata          dfu-cc.pb.o
    0x0007cd63   0x00000001   PAD
    0x0007cd64   0x00000024   Data   RO            2    .constdata          dfu-cc.pb.o
    0x0007cd88   0x00000078   Data   RO            3    .constdata          dfu-cc.pb.o
    0x0007ce00   0x00000018   Data   RO            4    .constdata          dfu-cc.pb.o
    0x0007ce18   0x00000030   Data   RO            5    .constdata          dfu-cc.pb.o
    0x0007ce48   0x00000030   Data   RO            6    .constdata          dfu-cc.pb.o
    0x0007ce78   0x00000024   Data   RO            7    .constdata          dfu-cc.pb.o
    0x0007ce9c   0x00000008   Data   RO           51    .constdata          dfu_req_handling.o
    0x0007cea4   0x0000000c   Data   RO          906    .constdata          nrf_drv_twi.o
    0x0007ceb0   0x00000054   Data   RO         1070    .constdata          drv_ext_light.o
    0x0007cf04   0x00000006   Data   RO         1202    .constdata          sx150x_led_drv_calc.o
    0x0007cf0a   0x00000002   PAD
    0x0007cf0c   0x00000040   Data   RO         1244    .constdata          dfu_public_key.o
    0x0007cf4c   0x00000004   Data   RO         1381    .constdata          ble_conn_params.o
    0x0007cf50   0x00000014   Data   RO         1527    .constdata          nrf_ble_dfu.o
    0x0007cf64   0x00000008   Data   RO         1762    .constdata          nrf_dfu.o
    0x0007cf6c   0x00000010   Data   RO         1763    .constdata          nrf_dfu.o
    0x0007cf7c   0x00000010   Data   RO         1764    .constdata          nrf_dfu.o
    0x0007cf8c   0x0000000c   Data   RO         1765    .constdata          nrf_dfu.o
    0x0007cf98   0x00000010   Data   RO         1766    .constdata          nrf_dfu.o
    0x0007cfa8   0x00000010   Data   RO         1842    .constdata          nrf_dfu_flash.o
    0x0007cfb8   0x00000040   Data   RO         1910    .constdata          nrf_dfu_mbr.o
    0x0007cff8   0x00000100   Data   RO         2973    .constdata          sha256.o
    0x0007d0f8   0x00000024   Data   RO         3226    .constdata          pb_decode.o
    0x0007d11c   0x00000010   Data   RO         3602    .constdata          segger_rtt_printf.o
    0x0007d12c   0x00000048   Data   RO         1071    .conststring        drv_ext_light.o
    0x0007d174   0x000000b0   Data   RO         3760    .rodata.curve_secp256r1  micro_ecc_lib_nrf52.lib(micro_ecc_lib_uECC.c.o)
    0x0007d224   0x00000020   Data   RO         3854    Region$$Table       anon$$obj.o
    0x0007d244   0x00000008   Data   RO         1529    dfu_trans           nrf_ble_dfu.o


    Execution Region RW_IRAM1 (Base: 0x20002c00, Size: 0x00003248, Max: 0x0000d380, ABSOLUTE)

    Base Addr    Size         Type   Attr      Idx    E Section Name        Object

    0x20002c00   0x00000024   Data   RW           52    .data               dfu_req_handling.o
    0x20002c24   0x00000004   Data   RW          486    .data               drv_sx1509.o
    0x20002c28   0x00000008   Data   RW          827    .data               twi_manager.o
    0x20002c30   0x00000014   Data   RW         1072    .data               drv_ext_light.o
    0x20002c44   0x00000008   Data   RW         1203    .data               sx150x_led_drv_calc.o
    0x20002c4c   0x00000014   Data   RW         1382    .data               ble_conn_params.o
    0x20002c60   0x0000000c   Data   RW         1528    .data               nrf_ble_dfu.o
    0x20002c6c   0x00000008   Data   RW         1767    .data               nrf_dfu.o
    0x20002c74   0x00000008   Data   RW         1768    .data               nrf_dfu.o
    0x20002c7c   0x0000001c   Data   RW         1769    .data               nrf_dfu.o
    0x20002c98   0x00000004   Data   RW         1843    .data               nrf_dfu_flash.o
    0x20002c9c   0x00000008   Data   RW         1965    .data               nrf_dfu_settings.o
    0x20002ca4   0x00000010   Data   RW         2363    .data               app_scheduler.o
    0x20002cb4   0x00000020   Data   RW         2434    .data               app_timer.o
    0x20002cd4   0x00000002   Data   RW         2743    .data               fstorage.o
    0x20002cd6   0x00000002   PAD
    0x20002cd8   0x00000014   Data   RW         3029    .data               softdevice_handler.o
    0x20002cec   0x00000004   Data   RW         3141    .data               softdevice_handler_appsh.o
    0x20002cf0   0x00000004   Data   RW         3646    .data               system_nrf52.o
    0x20002cf4   0x00000010   Data   RW         1844    fs_data             nrf_dfu_flash.o
    0x20002d04   0x0000059c   Zero   RW           50    .bss                dfu_req_handling.o
    0x200032a0   0x00000028   Zero   RW          905    .bss                nrf_drv_twi.o
    0x200032c8   0x00000020   Zero   RW         1379    .bss                ble_conn_params.o
    0x200032e8   0x0000001c   Zero   RW         1380    .bss                ble_conn_params.o
    0x20003304   0x0000016f   Zero   RW         1526    .bss                nrf_ble_dfu.o
    0x20003473   0x00000001   PAD
    0x20003474   0x0000000c   Zero   RW         1757    .bss                nrf_dfu.o
    0x20003480   0x00000020   Zero   RW         1758    .bss                nrf_dfu.o
    0x200034a0   0x0000000c   Zero   RW         1759    .bss                nrf_dfu.o
    0x200034ac   0x00000020   Zero   RW         1760    .bss                nrf_dfu.o
    0x200034cc   0x000001c8   Zero   RW         1761    .bss                nrf_dfu.o
    0x20003694   0x000002b8   Zero   RW         1964    .bss                nrf_dfu_settings.o
    0x2000394c   0x0000000c   Zero   RW         2596    .bss                app_util_platform.o
    0x20003958   0x00000068   Zero   RW         2742    .bss                fstorage.o
    0x200039c0   0x00000488   Zero   RW         3481    .bss                segger_rtt.o
    0x20003e48   0x00002000   Zero   RW         3634    STACK               arm_startup_nrf52.o



  Load Region LR$$.ARM.__AT_0x0007E000 (Base: 0x0007e000, Size: 0x00000000, Max: 0x00001000, ABSOLUTE)

    Execution Region ER$$.ARM.__AT_0x0007E000 (Base: 0x0007e000, Size: 0x00001000, Max: 0x00001000, ABSOLUTE, UNINIT)

    Base Addr    Size         Type   Attr      Idx    E Section Name        Object

    0x0007e000   0x00001000   Zero   RW         1961    .ARM.__AT_0x0007E000  nrf_dfu_settings.o



  Load Region LR$$.ARM.__AT_0x0007F000 (Base: 0x0007f000, Size: 0x00000000, Max: 0x00001000, ABSOLUTE)

    Execution Region ER$$.ARM.__AT_0x0007F000 (Base: 0x0007f000, Size: 0x00001000, Max: 0x00001000, ABSOLUTE, UNINIT)

    Base Addr    Size         Type   Attr      Idx    E Section Name        Object

    0x0007f000   0x00001000   Zero   RW         1962    .ARM.__AT_0x0007F000  nrf_dfu_settings.o



  Load Region LR$$.ARM.__AT_0x10001014 (Base: 0x10001014, Size: 0x00000004, Max: 0x00000004, ABSOLUTE)

    Execution Region ER$$.ARM.__AT_0x10001014 (Base: 0x10001014, Size: 0x00000004, Max: 0x00000004, ABSOLUTE, UNINIT)

    Base Addr    Size         Type   Attr      Idx    E Section Name        Object

    0x10001014   0x00000004   Data   RW         1732    .ARM.__AT_0x10001014  nrf_bootloader_info.o



  Load Region LR$$.ARM.__AT_0x10001018 (Base: 0x10001018, Size: 0x00000004, Max: 0x00000004, ABSOLUTE)

    Execution Region ER$$.ARM.__AT_0x10001018 (Base: 0x10001018, Size: 0x00000004, Max: 0x00000004, ABSOLUTE, UNINIT)

    Base Addr    Size         Type   Attr      Idx    E Section Name        Object

    0x10001018   0x00000004   Data   RW         1963    .ARM.__AT_0x10001018  nrf_dfu_settings.o


==============================================================================

Image component sizes


      Code (inc. data)   RO Data    RW Data    ZI Data      Debug   Object Name

       268         16          0         16          0       8299   app_scheduler.o
      1694        114          0         32          0      46031   app_timer.o
        48          6          0          0          0       1913   app_timer_appsh.o
       124         14          0          0         12       8774   app_util_platform.o
        36          8       1024          0       8192        892   arm_startup_nrf52.o
      1330          0          0          0          0      57692   ble_advdata.o
       448         58          4         20         60       6991   ble_conn_params.o
         8          0          0          0          0       1354   ble_srv_common.o
        60          6          0          0          0       1268   crc32.o
         0          0        313          0          0      13624   dfu-cc.pb.o
         0          0         64          0          0        693   dfu_public_key.o
      2004        164          8         36       1436      88131   dfu_req_handling.o
      3044        418        156         20          0      14458   drv_ext_light.o
      1188         48          0          4          0      18445   drv_sx1509.o
        86          0          0          0          0       3286   ecc.o
       800         64          0          2        104      10631   fstorage.o
       158         16          0          0          0      22514   main.o
      2082        142         28         12        367      29846   nrf_ble_dfu.o
         8          0          0          0          0        658   nrf_bootloader.o
        94          2          0          0          0       1359   nrf_bootloader_app_start.o
         0          0          0          4          0        342   nrf_bootloader_info.o
       122          0          0          0          0       2922   nrf_crypto.o
       372         42         68         44        544      10052   nrf_dfu.o
       376         34         16         20          0       8453   nrf_dfu_flash.o
       110         14         64          0          0       4992   nrf_dfu_mbr.o
       208         46          0         12       8888       4582   nrf_dfu_settings.o
        88         18          0          0          0       3176   nrf_dfu_transport.o
       720         46          0          0          0       7551   nrf_dfu_utils.o
        56          0          0          0          0      27423   nrf_drv_common.o
      1798         56         12          0         40      56428   nrf_drv_twi.o
       108         18          0          0          0       1885   nrf_nvmc.o
       208          0          0          0          0       3068   pb_common.o
      2312         14         36          0          0      23790   pb_decode.o
       406         38          0          0       1160       7924   segger_rtt.o
       900          6         16          0          0       5829   segger_rtt_printf.o
       740         40        256          0          0       4556   sha256.o
       466         48          0         20          0      38948   softdevice_handler.o
        84         14          0          4          0       2523   softdevice_handler_appsh.o
      1524         64          6          8          0       8193   sx150x_led_drv_calc.o
       668         58          0          4          0       2647   system_nrf52.o
        80          4          0          8          0      34105   twi_manager.o

    ----------------------------------------------------------------------
     24866       1636       2106        268      20804     596248   Object Totals
         0          0         32          0          0          0   (incl. Generated)
        40          0          3          2          1          0   (incl. Padding)

    ----------------------------------------------------------------------

      Code (inc. data)   RO Data    RW Data    ZI Data      Debug   Library Member Name

       224         30          0          0          0        172   round.o
         0          0          0          0          0          0   entry.o
         0          0          0          0          0          0   entry10a.o
         0          0          0          0          0          0   entry11a.o
         8          4          0          0          0          0   entry2.o
         4          0          0          0          0          0   entry5.o
         0          0          0          0          0          0   entry7b.o
         0          0          0          0          0          0   entry8b.o
         8          4          0          0          0          0   entry9a.o
        30          0          0          0          0          0   handlers.o
        36          8          0          0          0         68   init.o
         0          0          0          0          0          0   iusefp.o
        30          0          0          0          0         68   llshl.o
        36          0          0          0          0         68   llsshr.o
        32          0          0          0          0         68   llushr.o
        26          0          0          0          0         80   memcmp.o
        36          0          0          0          0         68   memcpya.o
        36          0          0          0          0        108   memseta.o
        18          0          0          0          0         68   strcpy.o
        98          0          0          0          0         92   uldiv.o
        48          0          0          0          0         68   cdcmple.o
        48          0          0          0          0         68   cdrcmple.o
       334          0          0          0          0        148   dadd.o
       186          0          0          0          0        176   depilogue.o
        50          0          0          0          0         76   dfixui.o
       136          4          0          0          0         92   drnd.o
        38          0          0          0          0         68   f2d.o
      4732         12        176          0          0      88635   micro_ecc_lib_uECC.c.o

    ----------------------------------------------------------------------
      6208         62        176          0          0      90191   Library Totals
        14          0          0          0          0          0   (incl. Padding)

    ----------------------------------------------------------------------

      Code (inc. data)   RO Data    RW Data    ZI Data      Debug   Library Name

       224         30          0          0          0        172   m_wm.l
       398         16          0          0          0        688   mc_w.l
       840          4          0          0          0        696   mf_w.l
      4732         12        176          0          0      88635   micro_ecc_lib_nrf52.lib

    ----------------------------------------------------------------------
      6208         62        176          0          0      90191   Library Totals

    ----------------------------------------------------------------------

==============================================================================


      Code (inc. data)   RO Data    RW Data    ZI Data      Debug   

     31074       1698       2282        268      20804     661367   Grand Totals
     31074       1698       2282        268      20804     661367   ELF Image Totals
     31074       1698       2282        268          0          0   ROM Totals

==============================================================================

    Total RO  Size (Code + RO Data)                33356 (  32.57kB)
    Total RW  Size (RW Data + ZI Data)             21072 (  20.58kB)
    Total ROM Size (Code + RO Data + RW Data)      33624 (  32.84kB)

==============================================================================

